ARM GAS  C:\Users\Jonathan\AppData\Local\Temp\cc5JTZZR.s 			page 1


   1              		.syntax unified
   2              		.cpu cortex-m3
   3              		.fpu softvfp
   4              		.eabi_attribute 20, 1
   5              		.eabi_attribute 21, 1
   6              		.eabi_attribute 23, 3
   7              		.eabi_attribute 24, 1
   8              		.eabi_attribute 25, 1
   9              		.eabi_attribute 26, 1
  10              		.eabi_attribute 30, 6
  11              		.eabi_attribute 34, 1
  12              		.eabi_attribute 18, 4
  13              		.thumb
  14              		.file	"emFile_1_MMC_HW_SPI.c"
  15              		.text
  16              	.Ltext0:
  17              		.cfi_sections	.debug_frame
  18              		.bss
  19              	emFile_1_isInited0:
  20 0000 00       		.space	1
  21              		.section	.text.emFile_1_Init,"ax",%progbits
  22              		.align	2
  23              		.thumb
  24              		.thumb_func
  25              		.type	emFile_1_Init, %function
  26              	emFile_1_Init:
  27              	.LFB56:
  28              		.file 1 ".\\Generated_Source\\PSoC5\\emFile_1_MMC_HW_SPI.c"
   1:.\Generated_Source\PSoC5/emFile_1_MMC_HW_SPI.c **** /*******************************************************************************
   2:.\Generated_Source\PSoC5/emFile_1_MMC_HW_SPI.c **** * File Name: emFile_1_MMC_HW_SPI.c
   3:.\Generated_Source\PSoC5/emFile_1_MMC_HW_SPI.c **** * Version 1.20
   4:.\Generated_Source\PSoC5/emFile_1_MMC_HW_SPI.c **** *
   5:.\Generated_Source\PSoC5/emFile_1_MMC_HW_SPI.c **** * Description:
   6:.\Generated_Source\PSoC5/emFile_1_MMC_HW_SPI.c **** *  Contains a set of File System APIs that implements SPI mode driver operation.
   7:.\Generated_Source\PSoC5/emFile_1_MMC_HW_SPI.c **** *
   8:.\Generated_Source\PSoC5/emFile_1_MMC_HW_SPI.c **** * Note:
   9:.\Generated_Source\PSoC5/emFile_1_MMC_HW_SPI.c **** *
  10:.\Generated_Source\PSoC5/emFile_1_MMC_HW_SPI.c **** ********************************************************************************
  11:.\Generated_Source\PSoC5/emFile_1_MMC_HW_SPI.c **** * Copyright 2011-2012, Cypress Semiconductor Corporation.  All rights reserved.
  12:.\Generated_Source\PSoC5/emFile_1_MMC_HW_SPI.c **** * You may use this file only in accordance with the license, terms, conditions,
  13:.\Generated_Source\PSoC5/emFile_1_MMC_HW_SPI.c **** * disclaimers, and limitations in the end user license agreement accompanying
  14:.\Generated_Source\PSoC5/emFile_1_MMC_HW_SPI.c **** * the software package with which this file was provided.
  15:.\Generated_Source\PSoC5/emFile_1_MMC_HW_SPI.c **** *******************************************************************************/
  16:.\Generated_Source\PSoC5/emFile_1_MMC_HW_SPI.c **** 
  17:.\Generated_Source\PSoC5/emFile_1_MMC_HW_SPI.c **** #include "FS.h"
  18:.\Generated_Source\PSoC5/emFile_1_MMC_HW_SPI.c **** #include "emFile_1.h"
  19:.\Generated_Source\PSoC5/emFile_1_MMC_HW_SPI.c **** #include "MMC_X_HW.h"
  20:.\Generated_Source\PSoC5/emFile_1_MMC_HW_SPI.c **** #include "project.h"
  21:.\Generated_Source\PSoC5/emFile_1_MMC_HW_SPI.c **** 
  22:.\Generated_Source\PSoC5/emFile_1_MMC_HW_SPI.c **** 
  23:.\Generated_Source\PSoC5/emFile_1_MMC_HW_SPI.c **** /*********************************************************************
  24:.\Generated_Source\PSoC5/emFile_1_MMC_HW_SPI.c **** *             Macros
  25:.\Generated_Source\PSoC5/emFile_1_MMC_HW_SPI.c **** *********************************************************************/
  26:.\Generated_Source\PSoC5/emFile_1_MMC_HW_SPI.c **** /* in mV, example means 3.3V */
  27:.\Generated_Source\PSoC5/emFile_1_MMC_HW_SPI.c **** #define emFile_1_MMC_DEFAULT_SUPPLY_VOLTAGE    (3300u)
  28:.\Generated_Source\PSoC5/emFile_1_MMC_HW_SPI.c **** 
  29:.\Generated_Source\PSoC5/emFile_1_MMC_HW_SPI.c **** /* Max. startup frequency (KHz) */
ARM GAS  C:\Users\Jonathan\AppData\Local\Temp\cc5JTZZR.s 			page 2


  30:.\Generated_Source\PSoC5/emFile_1_MMC_HW_SPI.c **** #define emFile_1_STARTUP_FREQ                   (400u)
  31:.\Generated_Source\PSoC5/emFile_1_MMC_HW_SPI.c **** 
  32:.\Generated_Source\PSoC5/emFile_1_MMC_HW_SPI.c **** 
  33:.\Generated_Source\PSoC5/emFile_1_MMC_HW_SPI.c **** /*********************************************************************
  34:.\Generated_Source\PSoC5/emFile_1_MMC_HW_SPI.c **** *       Static data
  35:.\Generated_Source\PSoC5/emFile_1_MMC_HW_SPI.c **** *********************************************************************/
  36:.\Generated_Source\PSoC5/emFile_1_MMC_HW_SPI.c **** 
  37:.\Generated_Source\PSoC5/emFile_1_MMC_HW_SPI.c **** static char emFile_1_isInited0;
  38:.\Generated_Source\PSoC5/emFile_1_MMC_HW_SPI.c **** 
  39:.\Generated_Source\PSoC5/emFile_1_MMC_HW_SPI.c **** #if (emFile_1_NUMBER_SD_CARDS >= 2u)
  40:.\Generated_Source\PSoC5/emFile_1_MMC_HW_SPI.c **** 
  41:.\Generated_Source\PSoC5/emFile_1_MMC_HW_SPI.c ****     static char emFile_1_isInited1;
  42:.\Generated_Source\PSoC5/emFile_1_MMC_HW_SPI.c **** 
  43:.\Generated_Source\PSoC5/emFile_1_MMC_HW_SPI.c **** #endif /* (emFile_1_NUMBER_SD_CARDS >= 2u) */
  44:.\Generated_Source\PSoC5/emFile_1_MMC_HW_SPI.c **** 
  45:.\Generated_Source\PSoC5/emFile_1_MMC_HW_SPI.c **** #if (emFile_1_NUMBER_SD_CARDS >= 3u)
  46:.\Generated_Source\PSoC5/emFile_1_MMC_HW_SPI.c **** 
  47:.\Generated_Source\PSoC5/emFile_1_MMC_HW_SPI.c ****     static char emFile_1_isInited2;
  48:.\Generated_Source\PSoC5/emFile_1_MMC_HW_SPI.c **** 
  49:.\Generated_Source\PSoC5/emFile_1_MMC_HW_SPI.c **** #endif /* (emFile_1_NUMBER_SD_CARDS >= 3u) */
  50:.\Generated_Source\PSoC5/emFile_1_MMC_HW_SPI.c **** 
  51:.\Generated_Source\PSoC5/emFile_1_MMC_HW_SPI.c **** #if (emFile_1_NUMBER_SD_CARDS == 4u)
  52:.\Generated_Source\PSoC5/emFile_1_MMC_HW_SPI.c **** 
  53:.\Generated_Source\PSoC5/emFile_1_MMC_HW_SPI.c ****     static char emFile_1_isInited3;
  54:.\Generated_Source\PSoC5/emFile_1_MMC_HW_SPI.c **** 
  55:.\Generated_Source\PSoC5/emFile_1_MMC_HW_SPI.c **** #endif /* (emFile_1_NUMBER_SD_CARDS == 4u) */
  56:.\Generated_Source\PSoC5/emFile_1_MMC_HW_SPI.c **** 
  57:.\Generated_Source\PSoC5/emFile_1_MMC_HW_SPI.c **** 
  58:.\Generated_Source\PSoC5/emFile_1_MMC_HW_SPI.c **** /*******************************************************************************
  59:.\Generated_Source\PSoC5/emFile_1_MMC_HW_SPI.c **** * Function Name: emFile_1_Init
  60:.\Generated_Source\PSoC5/emFile_1_MMC_HW_SPI.c **** ********************************************************************************
  61:.\Generated_Source\PSoC5/emFile_1_MMC_HW_SPI.c **** *
  62:.\Generated_Source\PSoC5/emFile_1_MMC_HW_SPI.c **** * Summary:
  63:.\Generated_Source\PSoC5/emFile_1_MMC_HW_SPI.c **** *  Initialize SPI Masters.
  64:.\Generated_Source\PSoC5/emFile_1_MMC_HW_SPI.c **** *
  65:.\Generated_Source\PSoC5/emFile_1_MMC_HW_SPI.c **** * Parameters:
  66:.\Generated_Source\PSoC5/emFile_1_MMC_HW_SPI.c **** *  Unit - Unit (SPIM) number.
  67:.\Generated_Source\PSoC5/emFile_1_MMC_HW_SPI.c **** *
  68:.\Generated_Source\PSoC5/emFile_1_MMC_HW_SPI.c **** * Return:
  69:.\Generated_Source\PSoC5/emFile_1_MMC_HW_SPI.c **** *  None
  70:.\Generated_Source\PSoC5/emFile_1_MMC_HW_SPI.c **** *
  71:.\Generated_Source\PSoC5/emFile_1_MMC_HW_SPI.c **** * Reentrant:
  72:.\Generated_Source\PSoC5/emFile_1_MMC_HW_SPI.c **** *  No
  73:.\Generated_Source\PSoC5/emFile_1_MMC_HW_SPI.c **** *
  74:.\Generated_Source\PSoC5/emFile_1_MMC_HW_SPI.c **** *******************************************************************************/
  75:.\Generated_Source\PSoC5/emFile_1_MMC_HW_SPI.c **** static void emFile_1_Init(U8 Unit) CYREENTRANT
  76:.\Generated_Source\PSoC5/emFile_1_MMC_HW_SPI.c **** {
  29              		.loc 1 76 0
  30              		.cfi_startproc
  31              		@ args = 0, pretend = 0, frame = 8
  32              		@ frame_needed = 1, uses_anonymous_args = 0
  33 0000 80B5     		push	{r7, lr}
  34              	.LCFI0:
  35              		.cfi_def_cfa_offset 8
  36              		.cfi_offset 7, -8
  37              		.cfi_offset 14, -4
  38 0002 82B0     		sub	sp, sp, #8
ARM GAS  C:\Users\Jonathan\AppData\Local\Temp\cc5JTZZR.s 			page 3


  39              	.LCFI1:
  40              		.cfi_def_cfa_offset 16
  41 0004 00AF     		add	r7, sp, #0
  42              	.LCFI2:
  43              		.cfi_def_cfa_register 7
  44 0006 0346     		mov	r3, r0
  45 0008 FB71     		strb	r3, [r7, #7]
  77:.\Generated_Source\PSoC5/emFile_1_MMC_HW_SPI.c ****     switch(Unit)
  46              		.loc 1 77 0
  47 000a FB79     		ldrb	r3, [r7, #7]	@ zero_extendqisi2
  48 000c 002B     		cmp	r3, #0
  49 000e 1AD1     		bne	.L7
  50              	.L3:
  78:.\Generated_Source\PSoC5/emFile_1_MMC_HW_SPI.c ****     {
  79:.\Generated_Source\PSoC5/emFile_1_MMC_HW_SPI.c ****     case 0u:
  80:.\Generated_Source\PSoC5/emFile_1_MMC_HW_SPI.c **** 
  81:.\Generated_Source\PSoC5/emFile_1_MMC_HW_SPI.c ****         if (emFile_1_isInited0 == 0u)
  51              		.loc 1 81 0
  52 0010 40F20003 		movw	r3, #:lower16:emFile_1_isInited0
  53 0014 C0F20003 		movt	r3, #:upper16:emFile_1_isInited0
  54 0018 1B78     		ldrb	r3, [r3, #0]	@ zero_extendqisi2
  55 001a 002B     		cmp	r3, #0
  56 001c 2ED1     		bne	.L8
  82:.\Generated_Source\PSoC5/emFile_1_MMC_HW_SPI.c ****         {
  83:.\Generated_Source\PSoC5/emFile_1_MMC_HW_SPI.c ****             /* Indicate that SPI 0 was initialized */
  84:.\Generated_Source\PSoC5/emFile_1_MMC_HW_SPI.c ****             emFile_1_isInited0 = 1u;
  57              		.loc 1 84 0
  58 001e 40F20003 		movw	r3, #:lower16:emFile_1_isInited0
  59 0022 C0F20003 		movt	r3, #:upper16:emFile_1_isInited0
  60 0026 4FF00102 		mov	r2, #1
  61 002a 1A70     		strb	r2, [r3, #0]
  85:.\Generated_Source\PSoC5/emFile_1_MMC_HW_SPI.c **** 
  86:.\Generated_Source\PSoC5/emFile_1_MMC_HW_SPI.c ****             /* Initialize SPI */
  87:.\Generated_Source\PSoC5/emFile_1_MMC_HW_SPI.c **** 
  88:.\Generated_Source\PSoC5/emFile_1_MMC_HW_SPI.c ****             /* Stop the clock to set a required divider */
  89:.\Generated_Source\PSoC5/emFile_1_MMC_HW_SPI.c ****             emFile_1_Clock_1_Stop();
  62              		.loc 1 89 0
  63 002c FFF7FEFF 		bl	emFile_1_Clock_1_Stop
  90:.\Generated_Source\PSoC5/emFile_1_MMC_HW_SPI.c **** 
  91:.\Generated_Source\PSoC5/emFile_1_MMC_HW_SPI.c ****             /* Set the inital clock frequency to 400 KHz */
  92:.\Generated_Source\PSoC5/emFile_1_MMC_HW_SPI.c ****             emFile_1_Clock_1_SetDividerValue(BCLK__BUS_CLK__KHZ/emFile_1_STARTUP_FREQ);
  64              		.loc 1 92 0
  65 0030 4FF03B00 		mov	r0, #59
  66 0034 4FF00101 		mov	r1, #1
  67 0038 FFF7FEFF 		bl	emFile_1_Clock_1_SetDividerRegister
  93:.\Generated_Source\PSoC5/emFile_1_MMC_HW_SPI.c **** 
  94:.\Generated_Source\PSoC5/emFile_1_MMC_HW_SPI.c ****             /* Start the clock */
  95:.\Generated_Source\PSoC5/emFile_1_MMC_HW_SPI.c ****             emFile_1_Clock_1_Start();
  68              		.loc 1 95 0
  69 003c FFF7FEFF 		bl	emFile_1_Clock_1_Start
  96:.\Generated_Source\PSoC5/emFile_1_MMC_HW_SPI.c **** 
  97:.\Generated_Source\PSoC5/emFile_1_MMC_HW_SPI.c ****             /* Start SPI 0 */
  98:.\Generated_Source\PSoC5/emFile_1_MMC_HW_SPI.c ****             emFile_1_SPI0_Start();
  70              		.loc 1 98 0
  71 0040 FFF7FEFF 		bl	emFile_1_SPI0_Start
  99:.\Generated_Source\PSoC5/emFile_1_MMC_HW_SPI.c ****         }
 100:.\Generated_Source\PSoC5/emFile_1_MMC_HW_SPI.c **** 
ARM GAS  C:\Users\Jonathan\AppData\Local\Temp\cc5JTZZR.s 			page 4


 101:.\Generated_Source\PSoC5/emFile_1_MMC_HW_SPI.c ****         break;
  72              		.loc 1 101 0
  73 0044 1AE0     		b	.L8
  74              	.L7:
 102:.\Generated_Source\PSoC5/emFile_1_MMC_HW_SPI.c **** 
 103:.\Generated_Source\PSoC5/emFile_1_MMC_HW_SPI.c ****         #if (emFile_1_NUMBER_SD_CARDS >= 2u)
 104:.\Generated_Source\PSoC5/emFile_1_MMC_HW_SPI.c **** 
 105:.\Generated_Source\PSoC5/emFile_1_MMC_HW_SPI.c ****             case 1u:
 106:.\Generated_Source\PSoC5/emFile_1_MMC_HW_SPI.c **** 
 107:.\Generated_Source\PSoC5/emFile_1_MMC_HW_SPI.c ****                 if (emFile_1_isInited1 == 0u)
 108:.\Generated_Source\PSoC5/emFile_1_MMC_HW_SPI.c ****                 {
 109:.\Generated_Source\PSoC5/emFile_1_MMC_HW_SPI.c ****                     /* Indicate that SPI 1 was initialized */
 110:.\Generated_Source\PSoC5/emFile_1_MMC_HW_SPI.c ****                     emFile_1_isInited1 = 1u;
 111:.\Generated_Source\PSoC5/emFile_1_MMC_HW_SPI.c **** 
 112:.\Generated_Source\PSoC5/emFile_1_MMC_HW_SPI.c ****                     /* Stop the clock to set a required divider */
 113:.\Generated_Source\PSoC5/emFile_1_MMC_HW_SPI.c ****                     emFile_1_Clock_2_Stop();
 114:.\Generated_Source\PSoC5/emFile_1_MMC_HW_SPI.c **** 
 115:.\Generated_Source\PSoC5/emFile_1_MMC_HW_SPI.c ****                     /* Set the inital clock frequency to 400 KHz */
 116:.\Generated_Source\PSoC5/emFile_1_MMC_HW_SPI.c ****                     emFile_1_Clock_2_SetDividerValue(BCLK__BUS_CLK__KHZ/emFile_1_STARTUP_FREQ);
 117:.\Generated_Source\PSoC5/emFile_1_MMC_HW_SPI.c **** 
 118:.\Generated_Source\PSoC5/emFile_1_MMC_HW_SPI.c ****                     /* Start the clock */
 119:.\Generated_Source\PSoC5/emFile_1_MMC_HW_SPI.c ****                     emFile_1_Clock_2_Start();
 120:.\Generated_Source\PSoC5/emFile_1_MMC_HW_SPI.c **** 
 121:.\Generated_Source\PSoC5/emFile_1_MMC_HW_SPI.c ****                     /* Start SPI 1 */
 122:.\Generated_Source\PSoC5/emFile_1_MMC_HW_SPI.c ****                     emFile_1_SPI1_Start();
 123:.\Generated_Source\PSoC5/emFile_1_MMC_HW_SPI.c ****                 }
 124:.\Generated_Source\PSoC5/emFile_1_MMC_HW_SPI.c **** 
 125:.\Generated_Source\PSoC5/emFile_1_MMC_HW_SPI.c ****                 break;
 126:.\Generated_Source\PSoC5/emFile_1_MMC_HW_SPI.c **** 
 127:.\Generated_Source\PSoC5/emFile_1_MMC_HW_SPI.c ****         #endif /* (emFile_1_NUMBER_SD_CARDS >= 2u) */
 128:.\Generated_Source\PSoC5/emFile_1_MMC_HW_SPI.c **** 
 129:.\Generated_Source\PSoC5/emFile_1_MMC_HW_SPI.c ****         #if (emFile_1_NUMBER_SD_CARDS >= 3u)
 130:.\Generated_Source\PSoC5/emFile_1_MMC_HW_SPI.c **** 
 131:.\Generated_Source\PSoC5/emFile_1_MMC_HW_SPI.c ****             case 2u:
 132:.\Generated_Source\PSoC5/emFile_1_MMC_HW_SPI.c **** 
 133:.\Generated_Source\PSoC5/emFile_1_MMC_HW_SPI.c ****                 if (emFile_1_isInited2 == 0u)
 134:.\Generated_Source\PSoC5/emFile_1_MMC_HW_SPI.c ****                 {
 135:.\Generated_Source\PSoC5/emFile_1_MMC_HW_SPI.c ****                     /* Indicate that SPI 2 was initialized */
 136:.\Generated_Source\PSoC5/emFile_1_MMC_HW_SPI.c ****                     emFile_1_isInited2 = 1u;
 137:.\Generated_Source\PSoC5/emFile_1_MMC_HW_SPI.c **** 
 138:.\Generated_Source\PSoC5/emFile_1_MMC_HW_SPI.c ****                     /* Stop the clock to set a required divider */
 139:.\Generated_Source\PSoC5/emFile_1_MMC_HW_SPI.c ****                     emFile_1_Clock_3_Stop();
 140:.\Generated_Source\PSoC5/emFile_1_MMC_HW_SPI.c **** 
 141:.\Generated_Source\PSoC5/emFile_1_MMC_HW_SPI.c ****                     /* Set the inital clock frequency to 400 KHz */
 142:.\Generated_Source\PSoC5/emFile_1_MMC_HW_SPI.c ****                     emFile_1_Clock_3_SetDividerValue(BCLK__BUS_CLK__KHZ/emFile_1_STARTUP_FREQ);
 143:.\Generated_Source\PSoC5/emFile_1_MMC_HW_SPI.c **** 
 144:.\Generated_Source\PSoC5/emFile_1_MMC_HW_SPI.c ****                     /* Start the clock */
 145:.\Generated_Source\PSoC5/emFile_1_MMC_HW_SPI.c ****                     emFile_1_Clock_3_Start();
 146:.\Generated_Source\PSoC5/emFile_1_MMC_HW_SPI.c **** 
 147:.\Generated_Source\PSoC5/emFile_1_MMC_HW_SPI.c ****                     /* Start SPI 2 */
 148:.\Generated_Source\PSoC5/emFile_1_MMC_HW_SPI.c ****                     emFile_1_SPI2_Start();
 149:.\Generated_Source\PSoC5/emFile_1_MMC_HW_SPI.c ****                 }
 150:.\Generated_Source\PSoC5/emFile_1_MMC_HW_SPI.c **** 
 151:.\Generated_Source\PSoC5/emFile_1_MMC_HW_SPI.c ****                 break;
 152:.\Generated_Source\PSoC5/emFile_1_MMC_HW_SPI.c **** 
 153:.\Generated_Source\PSoC5/emFile_1_MMC_HW_SPI.c ****         #endif /* (emFile_1_NUMBER_SD_CARDS >= 3u) */
 154:.\Generated_Source\PSoC5/emFile_1_MMC_HW_SPI.c **** 
ARM GAS  C:\Users\Jonathan\AppData\Local\Temp\cc5JTZZR.s 			page 5


 155:.\Generated_Source\PSoC5/emFile_1_MMC_HW_SPI.c ****         #if (emFile_1_NUMBER_SD_CARDS == 4u)
 156:.\Generated_Source\PSoC5/emFile_1_MMC_HW_SPI.c **** 
 157:.\Generated_Source\PSoC5/emFile_1_MMC_HW_SPI.c ****             case 3u:
 158:.\Generated_Source\PSoC5/emFile_1_MMC_HW_SPI.c **** 
 159:.\Generated_Source\PSoC5/emFile_1_MMC_HW_SPI.c ****                 if (emFile_1_isInited3 == 0u)
 160:.\Generated_Source\PSoC5/emFile_1_MMC_HW_SPI.c ****                 {
 161:.\Generated_Source\PSoC5/emFile_1_MMC_HW_SPI.c ****                     /* Indicate that SPI 3 was initialized */
 162:.\Generated_Source\PSoC5/emFile_1_MMC_HW_SPI.c ****                     emFile_1_isInited3 = 1u;
 163:.\Generated_Source\PSoC5/emFile_1_MMC_HW_SPI.c **** 
 164:.\Generated_Source\PSoC5/emFile_1_MMC_HW_SPI.c ****                     /* Stop the clock to set a required divider */
 165:.\Generated_Source\PSoC5/emFile_1_MMC_HW_SPI.c ****                     emFile_1_Clock_4_Stop();
 166:.\Generated_Source\PSoC5/emFile_1_MMC_HW_SPI.c **** 
 167:.\Generated_Source\PSoC5/emFile_1_MMC_HW_SPI.c ****                     /* Set the inital clock frequency to 400 KHz */
 168:.\Generated_Source\PSoC5/emFile_1_MMC_HW_SPI.c ****                     emFile_1_Clock_4_SetDividerValue(BCLK__BUS_CLK__KHZ/emFile_1_STARTUP_FREQ);
 169:.\Generated_Source\PSoC5/emFile_1_MMC_HW_SPI.c **** 
 170:.\Generated_Source\PSoC5/emFile_1_MMC_HW_SPI.c ****                     /* Start the clock */
 171:.\Generated_Source\PSoC5/emFile_1_MMC_HW_SPI.c ****                     emFile_1_Clock_4_Start();
 172:.\Generated_Source\PSoC5/emFile_1_MMC_HW_SPI.c **** 
 173:.\Generated_Source\PSoC5/emFile_1_MMC_HW_SPI.c ****                     /* Start SPI 3 */
 174:.\Generated_Source\PSoC5/emFile_1_MMC_HW_SPI.c ****                     emFile_1_SPI3_Start();
 175:.\Generated_Source\PSoC5/emFile_1_MMC_HW_SPI.c ****                 }
 176:.\Generated_Source\PSoC5/emFile_1_MMC_HW_SPI.c **** 
 177:.\Generated_Source\PSoC5/emFile_1_MMC_HW_SPI.c ****                 break;
 178:.\Generated_Source\PSoC5/emFile_1_MMC_HW_SPI.c **** 
 179:.\Generated_Source\PSoC5/emFile_1_MMC_HW_SPI.c ****         #endif /* (emFile_1_NUMBER_SD_CARDS == 4u) */
 180:.\Generated_Source\PSoC5/emFile_1_MMC_HW_SPI.c **** 
 181:.\Generated_Source\PSoC5/emFile_1_MMC_HW_SPI.c ****     default:
 182:.\Generated_Source\PSoC5/emFile_1_MMC_HW_SPI.c **** 
 183:.\Generated_Source\PSoC5/emFile_1_MMC_HW_SPI.c ****         if (emFile_1_isInited0 == 0u)
  75              		.loc 1 183 0
  76 0046 40F20003 		movw	r3, #:lower16:emFile_1_isInited0
  77 004a C0F20003 		movt	r3, #:upper16:emFile_1_isInited0
  78 004e 1B78     		ldrb	r3, [r3, #0]	@ zero_extendqisi2
  79 0050 002B     		cmp	r3, #0
  80 0052 15D1     		bne	.L9
 184:.\Generated_Source\PSoC5/emFile_1_MMC_HW_SPI.c ****         {
 185:.\Generated_Source\PSoC5/emFile_1_MMC_HW_SPI.c ****             /* Indicate that SPI 0 was initialized */
 186:.\Generated_Source\PSoC5/emFile_1_MMC_HW_SPI.c ****             emFile_1_isInited0 = 1u;
  81              		.loc 1 186 0
  82 0054 40F20003 		movw	r3, #:lower16:emFile_1_isInited0
  83 0058 C0F20003 		movt	r3, #:upper16:emFile_1_isInited0
  84 005c 4FF00102 		mov	r2, #1
  85 0060 1A70     		strb	r2, [r3, #0]
 187:.\Generated_Source\PSoC5/emFile_1_MMC_HW_SPI.c **** 
 188:.\Generated_Source\PSoC5/emFile_1_MMC_HW_SPI.c ****             /* Stop the clock to set a required divider */
 189:.\Generated_Source\PSoC5/emFile_1_MMC_HW_SPI.c ****             emFile_1_Clock_1_Stop();
  86              		.loc 1 189 0
  87 0062 FFF7FEFF 		bl	emFile_1_Clock_1_Stop
 190:.\Generated_Source\PSoC5/emFile_1_MMC_HW_SPI.c **** 
 191:.\Generated_Source\PSoC5/emFile_1_MMC_HW_SPI.c ****             /* Set the inital clock frequency to 400 KHz */
 192:.\Generated_Source\PSoC5/emFile_1_MMC_HW_SPI.c ****             emFile_1_Clock_1_SetDividerValue(BCLK__BUS_CLK__KHZ/emFile_1_STARTUP_FREQ);
  88              		.loc 1 192 0
  89 0066 4FF03B00 		mov	r0, #59
  90 006a 4FF00101 		mov	r1, #1
  91 006e FFF7FEFF 		bl	emFile_1_Clock_1_SetDividerRegister
 193:.\Generated_Source\PSoC5/emFile_1_MMC_HW_SPI.c **** 
 194:.\Generated_Source\PSoC5/emFile_1_MMC_HW_SPI.c ****             /* Start the clock */
ARM GAS  C:\Users\Jonathan\AppData\Local\Temp\cc5JTZZR.s 			page 6


 195:.\Generated_Source\PSoC5/emFile_1_MMC_HW_SPI.c ****             emFile_1_Clock_1_Start();
  92              		.loc 1 195 0
  93 0072 FFF7FEFF 		bl	emFile_1_Clock_1_Start
 196:.\Generated_Source\PSoC5/emFile_1_MMC_HW_SPI.c **** 
 197:.\Generated_Source\PSoC5/emFile_1_MMC_HW_SPI.c ****             /* Start SPI 0 */
 198:.\Generated_Source\PSoC5/emFile_1_MMC_HW_SPI.c ****             emFile_1_SPI0_Start();
  94              		.loc 1 198 0
  95 0076 FFF7FEFF 		bl	emFile_1_SPI0_Start
 199:.\Generated_Source\PSoC5/emFile_1_MMC_HW_SPI.c ****         }
 200:.\Generated_Source\PSoC5/emFile_1_MMC_HW_SPI.c ****         
 201:.\Generated_Source\PSoC5/emFile_1_MMC_HW_SPI.c ****         break;
  96              		.loc 1 201 0
  97 007a 01E0     		b	.L9
  98              	.L8:
 101:.\Generated_Source\PSoC5/emFile_1_MMC_HW_SPI.c ****         break;
  99              		.loc 1 101 0
 100 007c 00BF     		nop
 101 007e 00E0     		b	.L1
 102              	.L9:
 103              		.loc 1 201 0
 104 0080 00BF     		nop
 105              	.L1:
 202:.\Generated_Source\PSoC5/emFile_1_MMC_HW_SPI.c ****       }
 203:.\Generated_Source\PSoC5/emFile_1_MMC_HW_SPI.c **** }
 106              		.loc 1 203 0
 107 0082 07F10807 		add	r7, r7, #8
 108 0086 BD46     		mov	sp, r7
 109 0088 80BD     		pop	{r7, pc}
 110              		.cfi_endproc
 111              	.LFE56:
 112              		.size	emFile_1_Init, .-emFile_1_Init
 113 008a 00BF     		.section	.text.emFile_1_ReadWriteSPI,"ax",%progbits
 114              		.align	2
 115              		.thumb
 116              		.thumb_func
 117              		.type	emFile_1_ReadWriteSPI, %function
 118              	emFile_1_ReadWriteSPI:
 119              	.LFB57:
 204:.\Generated_Source\PSoC5/emFile_1_MMC_HW_SPI.c **** 
 205:.\Generated_Source\PSoC5/emFile_1_MMC_HW_SPI.c **** 
 206:.\Generated_Source\PSoC5/emFile_1_MMC_HW_SPI.c **** /*******************************************************************************
 207:.\Generated_Source\PSoC5/emFile_1_MMC_HW_SPI.c **** * Function Name: emFile_1_ReadWriteSPI
 208:.\Generated_Source\PSoC5/emFile_1_MMC_HW_SPI.c **** ********************************************************************************
 209:.\Generated_Source\PSoC5/emFile_1_MMC_HW_SPI.c **** *
 210:.\Generated_Source\PSoC5/emFile_1_MMC_HW_SPI.c **** * Summary:
 211:.\Generated_Source\PSoC5/emFile_1_MMC_HW_SPI.c **** *  Reads and Writes data via SPI.
 212:.\Generated_Source\PSoC5/emFile_1_MMC_HW_SPI.c **** *
 213:.\Generated_Source\PSoC5/emFile_1_MMC_HW_SPI.c **** * Parameters:
 214:.\Generated_Source\PSoC5/emFile_1_MMC_HW_SPI.c **** *  Unit - Unit number;
 215:.\Generated_Source\PSoC5/emFile_1_MMC_HW_SPI.c **** *  Data - data to be written.
 216:.\Generated_Source\PSoC5/emFile_1_MMC_HW_SPI.c **** *
 217:.\Generated_Source\PSoC5/emFile_1_MMC_HW_SPI.c **** * Return:
 218:.\Generated_Source\PSoC5/emFile_1_MMC_HW_SPI.c **** *  Data received from SD card.
 219:.\Generated_Source\PSoC5/emFile_1_MMC_HW_SPI.c **** *
 220:.\Generated_Source\PSoC5/emFile_1_MMC_HW_SPI.c **** * Reentrant:
 221:.\Generated_Source\PSoC5/emFile_1_MMC_HW_SPI.c **** *  No
 222:.\Generated_Source\PSoC5/emFile_1_MMC_HW_SPI.c **** *
ARM GAS  C:\Users\Jonathan\AppData\Local\Temp\cc5JTZZR.s 			page 7


 223:.\Generated_Source\PSoC5/emFile_1_MMC_HW_SPI.c **** *******************************************************************************/
 224:.\Generated_Source\PSoC5/emFile_1_MMC_HW_SPI.c **** static U8 emFile_1_ReadWriteSPI(U8 Unit, U8 Data) CYREENTRANT
 225:.\Generated_Source\PSoC5/emFile_1_MMC_HW_SPI.c **** {
 120              		.loc 1 225 0
 121              		.cfi_startproc
 122              		@ args = 0, pretend = 0, frame = 16
 123              		@ frame_needed = 1, uses_anonymous_args = 0
 124 0000 80B5     		push	{r7, lr}
 125              	.LCFI3:
 126              		.cfi_def_cfa_offset 8
 127              		.cfi_offset 7, -8
 128              		.cfi_offset 14, -4
 129 0002 84B0     		sub	sp, sp, #16
 130              	.LCFI4:
 131              		.cfi_def_cfa_offset 24
 132 0004 00AF     		add	r7, sp, #0
 133              	.LCFI5:
 134              		.cfi_def_cfa_register 7
 135 0006 0246     		mov	r2, r0
 136 0008 0B46     		mov	r3, r1
 137 000a FA71     		strb	r2, [r7, #7]
 138 000c BB71     		strb	r3, [r7, #6]
 226:.\Generated_Source\PSoC5/emFile_1_MMC_HW_SPI.c ****     U8 spiData;
 227:.\Generated_Source\PSoC5/emFile_1_MMC_HW_SPI.c **** 
 228:.\Generated_Source\PSoC5/emFile_1_MMC_HW_SPI.c ****     switch(Unit)
 139              		.loc 1 228 0
 140 000e FB79     		ldrb	r3, [r7, #7]	@ zero_extendqisi2
 141 0010 002B     		cmp	r3, #0
 142 0012 11D1     		bne	.L17
 143              	.L12:
 229:.\Generated_Source\PSoC5/emFile_1_MMC_HW_SPI.c ****     {
 230:.\Generated_Source\PSoC5/emFile_1_MMC_HW_SPI.c ****     case 0u:
 231:.\Generated_Source\PSoC5/emFile_1_MMC_HW_SPI.c **** 
 232:.\Generated_Source\PSoC5/emFile_1_MMC_HW_SPI.c ****         /* Send Data */
 233:.\Generated_Source\PSoC5/emFile_1_MMC_HW_SPI.c ****         emFile_1_SPI0_WriteTxData(Data);
 144              		.loc 1 233 0
 145 0014 BB79     		ldrb	r3, [r7, #6]	@ zero_extendqisi2
 146 0016 1846     		mov	r0, r3
 147 0018 FFF7FEFF 		bl	emFile_1_SPI0_WriteTxData
 234:.\Generated_Source\PSoC5/emFile_1_MMC_HW_SPI.c **** 
 235:.\Generated_Source\PSoC5/emFile_1_MMC_HW_SPI.c ****         /* Wait until all bits are shifted */
 236:.\Generated_Source\PSoC5/emFile_1_MMC_HW_SPI.c ****         while (0u == (emFile_1_SPI0_STS_SPI_DONE & emFile_1_SPI0_ReadTxStatus()));
 148              		.loc 1 236 0
 149 001c 00BF     		nop
 150              	.L13:
 151              		.loc 1 236 0 is_stmt 0 discriminator 1
 152 001e FFF7FEFF 		bl	emFile_1_SPI0_ReadTxStatus
 153 0022 0346     		mov	r3, r0
 154 0024 03F00103 		and	r3, r3, #1
 155 0028 DBB2     		uxtb	r3, r3
 156 002a 002B     		cmp	r3, #0
 157 002c F7D0     		beq	.L13
 237:.\Generated_Source\PSoC5/emFile_1_MMC_HW_SPI.c **** 
 238:.\Generated_Source\PSoC5/emFile_1_MMC_HW_SPI.c ****         /* Read data */
 239:.\Generated_Source\PSoC5/emFile_1_MMC_HW_SPI.c ****         spiData = emFile_1_SPI0_ReadRxData();
 158              		.loc 1 239 0 is_stmt 1
 159 002e FFF7FEFF 		bl	emFile_1_SPI0_ReadRxData
ARM GAS  C:\Users\Jonathan\AppData\Local\Temp\cc5JTZZR.s 			page 8


 160 0032 0346     		mov	r3, r0
 161 0034 FB73     		strb	r3, [r7, #15]
 240:.\Generated_Source\PSoC5/emFile_1_MMC_HW_SPI.c **** 
 241:.\Generated_Source\PSoC5/emFile_1_MMC_HW_SPI.c ****         break;
 162              		.loc 1 241 0
 163 0036 11E0     		b	.L14
 164              	.L17:
 242:.\Generated_Source\PSoC5/emFile_1_MMC_HW_SPI.c **** 
 243:.\Generated_Source\PSoC5/emFile_1_MMC_HW_SPI.c ****     #if (emFile_1_NUMBER_SD_CARDS >= 2u)
 244:.\Generated_Source\PSoC5/emFile_1_MMC_HW_SPI.c **** 
 245:.\Generated_Source\PSoC5/emFile_1_MMC_HW_SPI.c ****         case 1u:
 246:.\Generated_Source\PSoC5/emFile_1_MMC_HW_SPI.c **** 
 247:.\Generated_Source\PSoC5/emFile_1_MMC_HW_SPI.c ****             /* Send Data */
 248:.\Generated_Source\PSoC5/emFile_1_MMC_HW_SPI.c ****             emFile_1_SPI1_WriteTxData(Data);
 249:.\Generated_Source\PSoC5/emFile_1_MMC_HW_SPI.c **** 
 250:.\Generated_Source\PSoC5/emFile_1_MMC_HW_SPI.c ****             /* Wait until all bits are shifted */
 251:.\Generated_Source\PSoC5/emFile_1_MMC_HW_SPI.c ****             while (0u == (emFile_1_SPI1_STS_SPI_DONE & emFile_1_SPI1_ReadTxStatus()));
 252:.\Generated_Source\PSoC5/emFile_1_MMC_HW_SPI.c **** 
 253:.\Generated_Source\PSoC5/emFile_1_MMC_HW_SPI.c ****             /* Read data */
 254:.\Generated_Source\PSoC5/emFile_1_MMC_HW_SPI.c ****             spiData = emFile_1_SPI1_ReadRxData();
 255:.\Generated_Source\PSoC5/emFile_1_MMC_HW_SPI.c **** 
 256:.\Generated_Source\PSoC5/emFile_1_MMC_HW_SPI.c ****             break;
 257:.\Generated_Source\PSoC5/emFile_1_MMC_HW_SPI.c **** 
 258:.\Generated_Source\PSoC5/emFile_1_MMC_HW_SPI.c ****     #endif /* (emFile_1_NUMBER_SD_CARDS >= 2u) */
 259:.\Generated_Source\PSoC5/emFile_1_MMC_HW_SPI.c **** 
 260:.\Generated_Source\PSoC5/emFile_1_MMC_HW_SPI.c ****     #if (emFile_1_NUMBER_SD_CARDS >= 3u)
 261:.\Generated_Source\PSoC5/emFile_1_MMC_HW_SPI.c **** 
 262:.\Generated_Source\PSoC5/emFile_1_MMC_HW_SPI.c ****         case 2u:
 263:.\Generated_Source\PSoC5/emFile_1_MMC_HW_SPI.c **** 
 264:.\Generated_Source\PSoC5/emFile_1_MMC_HW_SPI.c ****             /* Send Data */
 265:.\Generated_Source\PSoC5/emFile_1_MMC_HW_SPI.c ****             emFile_1_SPI2_WriteTxData(Data);
 266:.\Generated_Source\PSoC5/emFile_1_MMC_HW_SPI.c **** 
 267:.\Generated_Source\PSoC5/emFile_1_MMC_HW_SPI.c ****             /* Wait until all bits are shifted */
 268:.\Generated_Source\PSoC5/emFile_1_MMC_HW_SPI.c ****             while (0u == (emFile_1_SPI2_STS_SPI_DONE & emFile_1_SPI2_ReadTxStatus()));
 269:.\Generated_Source\PSoC5/emFile_1_MMC_HW_SPI.c **** 
 270:.\Generated_Source\PSoC5/emFile_1_MMC_HW_SPI.c ****             /* Read data */
 271:.\Generated_Source\PSoC5/emFile_1_MMC_HW_SPI.c ****             spiData = emFile_1_SPI2_ReadRxData();
 272:.\Generated_Source\PSoC5/emFile_1_MMC_HW_SPI.c **** 
 273:.\Generated_Source\PSoC5/emFile_1_MMC_HW_SPI.c ****             break;
 274:.\Generated_Source\PSoC5/emFile_1_MMC_HW_SPI.c **** 
 275:.\Generated_Source\PSoC5/emFile_1_MMC_HW_SPI.c ****     #endif /* (emFile_1_NUMBER_SD_CARDS >= 2u) */
 276:.\Generated_Source\PSoC5/emFile_1_MMC_HW_SPI.c **** 
 277:.\Generated_Source\PSoC5/emFile_1_MMC_HW_SPI.c ****     #if (emFile_1_NUMBER_SD_CARDS >= 4u)
 278:.\Generated_Source\PSoC5/emFile_1_MMC_HW_SPI.c **** 
 279:.\Generated_Source\PSoC5/emFile_1_MMC_HW_SPI.c ****         case 3u:
 280:.\Generated_Source\PSoC5/emFile_1_MMC_HW_SPI.c **** 
 281:.\Generated_Source\PSoC5/emFile_1_MMC_HW_SPI.c ****             /* Send Data */
 282:.\Generated_Source\PSoC5/emFile_1_MMC_HW_SPI.c ****             emFile_1_SPI3_WriteTxData(Data);
 283:.\Generated_Source\PSoC5/emFile_1_MMC_HW_SPI.c **** 
 284:.\Generated_Source\PSoC5/emFile_1_MMC_HW_SPI.c ****             /* Wait until all bits are shifted */
 285:.\Generated_Source\PSoC5/emFile_1_MMC_HW_SPI.c ****             while (0u == (emFile_1_SPI3_STS_SPI_DONE & emFile_1_SPI3_ReadTxStatus()));
 286:.\Generated_Source\PSoC5/emFile_1_MMC_HW_SPI.c **** 
 287:.\Generated_Source\PSoC5/emFile_1_MMC_HW_SPI.c ****             /* Read data */
 288:.\Generated_Source\PSoC5/emFile_1_MMC_HW_SPI.c ****             spiData = emFile_1_SPI3_ReadRxData();
 289:.\Generated_Source\PSoC5/emFile_1_MMC_HW_SPI.c **** 
 290:.\Generated_Source\PSoC5/emFile_1_MMC_HW_SPI.c ****             break;
 291:.\Generated_Source\PSoC5/emFile_1_MMC_HW_SPI.c **** 
ARM GAS  C:\Users\Jonathan\AppData\Local\Temp\cc5JTZZR.s 			page 9


 292:.\Generated_Source\PSoC5/emFile_1_MMC_HW_SPI.c ****     #endif /* (emFile_1_NUMBER_SD_CARDS >= 4u) */
 293:.\Generated_Source\PSoC5/emFile_1_MMC_HW_SPI.c **** 
 294:.\Generated_Source\PSoC5/emFile_1_MMC_HW_SPI.c ****     default:
 295:.\Generated_Source\PSoC5/emFile_1_MMC_HW_SPI.c **** 
 296:.\Generated_Source\PSoC5/emFile_1_MMC_HW_SPI.c ****         /* Send Data */
 297:.\Generated_Source\PSoC5/emFile_1_MMC_HW_SPI.c ****         emFile_1_SPI0_WriteTxData(Data);
 165              		.loc 1 297 0
 166 0038 BB79     		ldrb	r3, [r7, #6]	@ zero_extendqisi2
 167 003a 1846     		mov	r0, r3
 168 003c FFF7FEFF 		bl	emFile_1_SPI0_WriteTxData
 298:.\Generated_Source\PSoC5/emFile_1_MMC_HW_SPI.c **** 
 299:.\Generated_Source\PSoC5/emFile_1_MMC_HW_SPI.c ****         /* Wait until all bits are shifted */
 300:.\Generated_Source\PSoC5/emFile_1_MMC_HW_SPI.c ****         while (0u == (emFile_1_SPI0_STS_SPI_DONE & emFile_1_SPI0_ReadTxStatus()));
 169              		.loc 1 300 0
 170 0040 00BF     		nop
 171              	.L15:
 172              		.loc 1 300 0 is_stmt 0 discriminator 1
 173 0042 FFF7FEFF 		bl	emFile_1_SPI0_ReadTxStatus
 174 0046 0346     		mov	r3, r0
 175 0048 03F00103 		and	r3, r3, #1
 176 004c DBB2     		uxtb	r3, r3
 177 004e 002B     		cmp	r3, #0
 178 0050 F7D0     		beq	.L15
 301:.\Generated_Source\PSoC5/emFile_1_MMC_HW_SPI.c **** 
 302:.\Generated_Source\PSoC5/emFile_1_MMC_HW_SPI.c ****         /* Read data */
 303:.\Generated_Source\PSoC5/emFile_1_MMC_HW_SPI.c ****         spiData = emFile_1_SPI0_ReadRxData();
 179              		.loc 1 303 0 is_stmt 1
 180 0052 FFF7FEFF 		bl	emFile_1_SPI0_ReadRxData
 181 0056 0346     		mov	r3, r0
 182 0058 FB73     		strb	r3, [r7, #15]
 304:.\Generated_Source\PSoC5/emFile_1_MMC_HW_SPI.c ****         
 305:.\Generated_Source\PSoC5/emFile_1_MMC_HW_SPI.c ****         break;
 183              		.loc 1 305 0
 184 005a 00BF     		nop
 185              	.L14:
 306:.\Generated_Source\PSoC5/emFile_1_MMC_HW_SPI.c ****     }
 307:.\Generated_Source\PSoC5/emFile_1_MMC_HW_SPI.c **** 
 308:.\Generated_Source\PSoC5/emFile_1_MMC_HW_SPI.c ****     return(spiData);
 186              		.loc 1 308 0
 187 005c FB7B     		ldrb	r3, [r7, #15]	@ zero_extendqisi2
 309:.\Generated_Source\PSoC5/emFile_1_MMC_HW_SPI.c **** }
 188              		.loc 1 309 0
 189 005e 1846     		mov	r0, r3
 190 0060 07F11007 		add	r7, r7, #16
 191 0064 BD46     		mov	sp, r7
 192 0066 80BD     		pop	{r7, pc}
 193              		.cfi_endproc
 194              	.LFE57:
 195              		.size	emFile_1_ReadWriteSPI, .-emFile_1_ReadWriteSPI
 196              		.section	.text.FS_MMC_HW_X_EnableCS,"ax",%progbits
 197              		.align	2
 198              		.global	FS_MMC_HW_X_EnableCS
 199              		.thumb
 200              		.thumb_func
 201              		.type	FS_MMC_HW_X_EnableCS, %function
 202              	FS_MMC_HW_X_EnableCS:
 203              	.LFB58:
ARM GAS  C:\Users\Jonathan\AppData\Local\Temp\cc5JTZZR.s 			page 10


 310:.\Generated_Source\PSoC5/emFile_1_MMC_HW_SPI.c **** 
 311:.\Generated_Source\PSoC5/emFile_1_MMC_HW_SPI.c **** /*******************************************************************************
 312:.\Generated_Source\PSoC5/emFile_1_MMC_HW_SPI.c **** * Function Name: FS_MMC_HW_X_EnableCS
 313:.\Generated_Source\PSoC5/emFile_1_MMC_HW_SPI.c **** ********************************************************************************
 314:.\Generated_Source\PSoC5/emFile_1_MMC_HW_SPI.c **** *
 315:.\Generated_Source\PSoC5/emFile_1_MMC_HW_SPI.c **** * Summary:
 316:.\Generated_Source\PSoC5/emFile_1_MMC_HW_SPI.c **** *  FS low level function. Sets the card slot active using the
 317:.\Generated_Source\PSoC5/emFile_1_MMC_HW_SPI.c **** *  chip select (CS) line.
 318:.\Generated_Source\PSoC5/emFile_1_MMC_HW_SPI.c **** *
 319:.\Generated_Source\PSoC5/emFile_1_MMC_HW_SPI.c **** * Parameters:
 320:.\Generated_Source\PSoC5/emFile_1_MMC_HW_SPI.c **** *  Unit      - Device Index.
 321:.\Generated_Source\PSoC5/emFile_1_MMC_HW_SPI.c **** *
 322:.\Generated_Source\PSoC5/emFile_1_MMC_HW_SPI.c **** * Return:
 323:.\Generated_Source\PSoC5/emFile_1_MMC_HW_SPI.c **** *  None
 324:.\Generated_Source\PSoC5/emFile_1_MMC_HW_SPI.c **** *
 325:.\Generated_Source\PSoC5/emFile_1_MMC_HW_SPI.c **** * Reentrant:
 326:.\Generated_Source\PSoC5/emFile_1_MMC_HW_SPI.c **** *  No
 327:.\Generated_Source\PSoC5/emFile_1_MMC_HW_SPI.c **** *
 328:.\Generated_Source\PSoC5/emFile_1_MMC_HW_SPI.c **** *******************************************************************************/
 329:.\Generated_Source\PSoC5/emFile_1_MMC_HW_SPI.c **** void FS_MMC_HW_X_EnableCS(U8 Unit)
 330:.\Generated_Source\PSoC5/emFile_1_MMC_HW_SPI.c **** {
 204              		.loc 1 330 0
 205              		.cfi_startproc
 206              		@ args = 0, pretend = 0, frame = 8
 207              		@ frame_needed = 1, uses_anonymous_args = 0
 208 0000 80B5     		push	{r7, lr}
 209              	.LCFI6:
 210              		.cfi_def_cfa_offset 8
 211              		.cfi_offset 7, -8
 212              		.cfi_offset 14, -4
 213 0002 82B0     		sub	sp, sp, #8
 214              	.LCFI7:
 215              		.cfi_def_cfa_offset 16
 216 0004 00AF     		add	r7, sp, #0
 217              	.LCFI8:
 218              		.cfi_def_cfa_register 7
 219 0006 0346     		mov	r3, r0
 220 0008 FB71     		strb	r3, [r7, #7]
 331:.\Generated_Source\PSoC5/emFile_1_MMC_HW_SPI.c ****     switch(Unit)
 221              		.loc 1 331 0
 222 000a FB79     		ldrb	r3, [r7, #7]	@ zero_extendqisi2
 223 000c 002B     		cmp	r3, #0
 224 000e 04D1     		bne	.L22
 225              	.L20:
 332:.\Generated_Source\PSoC5/emFile_1_MMC_HW_SPI.c ****     {
 333:.\Generated_Source\PSoC5/emFile_1_MMC_HW_SPI.c ****         case 0u:
 334:.\Generated_Source\PSoC5/emFile_1_MMC_HW_SPI.c **** 
 335:.\Generated_Source\PSoC5/emFile_1_MMC_HW_SPI.c ****             /* Set CS to 0 */
 336:.\Generated_Source\PSoC5/emFile_1_MMC_HW_SPI.c ****             emFile_1_SPI0_CS_Write(0u);
 226              		.loc 1 336 0
 227 0010 4FF00000 		mov	r0, #0
 228 0014 FFF7FEFF 		bl	emFile_1_SPI0_CS_Write
 337:.\Generated_Source\PSoC5/emFile_1_MMC_HW_SPI.c **** 
 338:.\Generated_Source\PSoC5/emFile_1_MMC_HW_SPI.c ****             break;
 229              		.loc 1 338 0
 230 0018 04E0     		b	.L18
 231              	.L22:
ARM GAS  C:\Users\Jonathan\AppData\Local\Temp\cc5JTZZR.s 			page 11


 339:.\Generated_Source\PSoC5/emFile_1_MMC_HW_SPI.c **** 
 340:.\Generated_Source\PSoC5/emFile_1_MMC_HW_SPI.c ****         #if (emFile_1_NUMBER_SD_CARDS >= 2u)
 341:.\Generated_Source\PSoC5/emFile_1_MMC_HW_SPI.c **** 
 342:.\Generated_Source\PSoC5/emFile_1_MMC_HW_SPI.c ****             case 1u:
 343:.\Generated_Source\PSoC5/emFile_1_MMC_HW_SPI.c **** 
 344:.\Generated_Source\PSoC5/emFile_1_MMC_HW_SPI.c ****                 /* Set CS to 0 */
 345:.\Generated_Source\PSoC5/emFile_1_MMC_HW_SPI.c ****                 emFile_1_SPI1_CS_Write(0u);
 346:.\Generated_Source\PSoC5/emFile_1_MMC_HW_SPI.c **** 
 347:.\Generated_Source\PSoC5/emFile_1_MMC_HW_SPI.c ****                 break;
 348:.\Generated_Source\PSoC5/emFile_1_MMC_HW_SPI.c **** 
 349:.\Generated_Source\PSoC5/emFile_1_MMC_HW_SPI.c ****         #endif /* (emFile_1_NUMBER_SD_CARDS >= 2u) */
 350:.\Generated_Source\PSoC5/emFile_1_MMC_HW_SPI.c **** 
 351:.\Generated_Source\PSoC5/emFile_1_MMC_HW_SPI.c ****         #if (emFile_1_NUMBER_SD_CARDS >= 3u)
 352:.\Generated_Source\PSoC5/emFile_1_MMC_HW_SPI.c **** 
 353:.\Generated_Source\PSoC5/emFile_1_MMC_HW_SPI.c ****             case 2u:
 354:.\Generated_Source\PSoC5/emFile_1_MMC_HW_SPI.c **** 
 355:.\Generated_Source\PSoC5/emFile_1_MMC_HW_SPI.c ****                 /* Set CS to 0 */
 356:.\Generated_Source\PSoC5/emFile_1_MMC_HW_SPI.c ****                 emFile_1_SPI2_CS_Write(0u);
 357:.\Generated_Source\PSoC5/emFile_1_MMC_HW_SPI.c **** 
 358:.\Generated_Source\PSoC5/emFile_1_MMC_HW_SPI.c ****                 break;
 359:.\Generated_Source\PSoC5/emFile_1_MMC_HW_SPI.c **** 
 360:.\Generated_Source\PSoC5/emFile_1_MMC_HW_SPI.c ****         #endif /* (emFile_1_NUMBER_SD_CARDS >= 3u) */
 361:.\Generated_Source\PSoC5/emFile_1_MMC_HW_SPI.c **** 
 362:.\Generated_Source\PSoC5/emFile_1_MMC_HW_SPI.c ****         #if (emFile_1_NUMBER_SD_CARDS == 4u)
 363:.\Generated_Source\PSoC5/emFile_1_MMC_HW_SPI.c **** 
 364:.\Generated_Source\PSoC5/emFile_1_MMC_HW_SPI.c ****             case 3u:
 365:.\Generated_Source\PSoC5/emFile_1_MMC_HW_SPI.c **** 
 366:.\Generated_Source\PSoC5/emFile_1_MMC_HW_SPI.c ****                 /* Set CS to 0 */
 367:.\Generated_Source\PSoC5/emFile_1_MMC_HW_SPI.c ****                 emFile_1_SPI3_CS_Write(0u);
 368:.\Generated_Source\PSoC5/emFile_1_MMC_HW_SPI.c **** 
 369:.\Generated_Source\PSoC5/emFile_1_MMC_HW_SPI.c ****                 break;
 370:.\Generated_Source\PSoC5/emFile_1_MMC_HW_SPI.c **** 
 371:.\Generated_Source\PSoC5/emFile_1_MMC_HW_SPI.c ****         #endif /* (emFile_1_NUMBER_SD_CARDS == 4u) */
 372:.\Generated_Source\PSoC5/emFile_1_MMC_HW_SPI.c **** 
 373:.\Generated_Source\PSoC5/emFile_1_MMC_HW_SPI.c ****         default:
 374:.\Generated_Source\PSoC5/emFile_1_MMC_HW_SPI.c **** 
 375:.\Generated_Source\PSoC5/emFile_1_MMC_HW_SPI.c ****             emFile_1_SPI0_CS_Write(0u);
 232              		.loc 1 375 0
 233 001a 4FF00000 		mov	r0, #0
 234 001e FFF7FEFF 		bl	emFile_1_SPI0_CS_Write
 376:.\Generated_Source\PSoC5/emFile_1_MMC_HW_SPI.c **** 
 377:.\Generated_Source\PSoC5/emFile_1_MMC_HW_SPI.c ****             break;
 235              		.loc 1 377 0
 236 0022 00BF     		nop
 237              	.L18:
 378:.\Generated_Source\PSoC5/emFile_1_MMC_HW_SPI.c ****     }
 379:.\Generated_Source\PSoC5/emFile_1_MMC_HW_SPI.c **** }
 238              		.loc 1 379 0
 239 0024 07F10807 		add	r7, r7, #8
 240 0028 BD46     		mov	sp, r7
 241 002a 80BD     		pop	{r7, pc}
 242              		.cfi_endproc
 243              	.LFE58:
 244              		.size	FS_MMC_HW_X_EnableCS, .-FS_MMC_HW_X_EnableCS
 245              		.section	.text.FS_MMC_HW_X_DisableCS,"ax",%progbits
 246              		.align	2
 247              		.global	FS_MMC_HW_X_DisableCS
ARM GAS  C:\Users\Jonathan\AppData\Local\Temp\cc5JTZZR.s 			page 12


 248              		.thumb
 249              		.thumb_func
 250              		.type	FS_MMC_HW_X_DisableCS, %function
 251              	FS_MMC_HW_X_DisableCS:
 252              	.LFB59:
 380:.\Generated_Source\PSoC5/emFile_1_MMC_HW_SPI.c **** 
 381:.\Generated_Source\PSoC5/emFile_1_MMC_HW_SPI.c **** 
 382:.\Generated_Source\PSoC5/emFile_1_MMC_HW_SPI.c **** /*******************************************************************************
 383:.\Generated_Source\PSoC5/emFile_1_MMC_HW_SPI.c **** * Function Name: FS_MMC_HW_X_DisableCS
 384:.\Generated_Source\PSoC5/emFile_1_MMC_HW_SPI.c **** ********************************************************************************
 385:.\Generated_Source\PSoC5/emFile_1_MMC_HW_SPI.c **** *
 386:.\Generated_Source\PSoC5/emFile_1_MMC_HW_SPI.c **** * Summary:
 387:.\Generated_Source\PSoC5/emFile_1_MMC_HW_SPI.c **** *  FS low level function. Clears the card slot inactive using the
 388:.\Generated_Source\PSoC5/emFile_1_MMC_HW_SPI.c **** *  chip select (CS) line.
 389:.\Generated_Source\PSoC5/emFile_1_MMC_HW_SPI.c **** *
 390:.\Generated_Source\PSoC5/emFile_1_MMC_HW_SPI.c **** * Parameters:
 391:.\Generated_Source\PSoC5/emFile_1_MMC_HW_SPI.c **** *  Unit      - Device Index.
 392:.\Generated_Source\PSoC5/emFile_1_MMC_HW_SPI.c **** *
 393:.\Generated_Source\PSoC5/emFile_1_MMC_HW_SPI.c **** * Return:
 394:.\Generated_Source\PSoC5/emFile_1_MMC_HW_SPI.c **** *  None
 395:.\Generated_Source\PSoC5/emFile_1_MMC_HW_SPI.c **** *
 396:.\Generated_Source\PSoC5/emFile_1_MMC_HW_SPI.c **** * Reentrant:
 397:.\Generated_Source\PSoC5/emFile_1_MMC_HW_SPI.c **** *  No
 398:.\Generated_Source\PSoC5/emFile_1_MMC_HW_SPI.c **** *
 399:.\Generated_Source\PSoC5/emFile_1_MMC_HW_SPI.c **** *******************************************************************************/
 400:.\Generated_Source\PSoC5/emFile_1_MMC_HW_SPI.c **** void FS_MMC_HW_X_DisableCS(U8 Unit)
 401:.\Generated_Source\PSoC5/emFile_1_MMC_HW_SPI.c **** {
 253              		.loc 1 401 0
 254              		.cfi_startproc
 255              		@ args = 0, pretend = 0, frame = 8
 256              		@ frame_needed = 1, uses_anonymous_args = 0
 257 0000 80B5     		push	{r7, lr}
 258              	.LCFI9:
 259              		.cfi_def_cfa_offset 8
 260              		.cfi_offset 7, -8
 261              		.cfi_offset 14, -4
 262 0002 82B0     		sub	sp, sp, #8
 263              	.LCFI10:
 264              		.cfi_def_cfa_offset 16
 265 0004 00AF     		add	r7, sp, #0
 266              	.LCFI11:
 267              		.cfi_def_cfa_register 7
 268 0006 0346     		mov	r3, r0
 269 0008 FB71     		strb	r3, [r7, #7]
 402:.\Generated_Source\PSoC5/emFile_1_MMC_HW_SPI.c ****     switch(Unit)
 270              		.loc 1 402 0
 271 000a FB79     		ldrb	r3, [r7, #7]	@ zero_extendqisi2
 272 000c 002B     		cmp	r3, #0
 273 000e 04D1     		bne	.L27
 274              	.L25:
 403:.\Generated_Source\PSoC5/emFile_1_MMC_HW_SPI.c ****     {
 404:.\Generated_Source\PSoC5/emFile_1_MMC_HW_SPI.c ****     case 0u:
 405:.\Generated_Source\PSoC5/emFile_1_MMC_HW_SPI.c **** 
 406:.\Generated_Source\PSoC5/emFile_1_MMC_HW_SPI.c ****         emFile_1_SPI0_CS_Write(1u);
 275              		.loc 1 406 0
 276 0010 4FF00100 		mov	r0, #1
 277 0014 FFF7FEFF 		bl	emFile_1_SPI0_CS_Write
ARM GAS  C:\Users\Jonathan\AppData\Local\Temp\cc5JTZZR.s 			page 13


 407:.\Generated_Source\PSoC5/emFile_1_MMC_HW_SPI.c **** 
 408:.\Generated_Source\PSoC5/emFile_1_MMC_HW_SPI.c ****         break;
 278              		.loc 1 408 0
 279 0018 04E0     		b	.L23
 280              	.L27:
 409:.\Generated_Source\PSoC5/emFile_1_MMC_HW_SPI.c **** 
 410:.\Generated_Source\PSoC5/emFile_1_MMC_HW_SPI.c ****     #if (emFile_1_NUMBER_SD_CARDS >= 2u)
 411:.\Generated_Source\PSoC5/emFile_1_MMC_HW_SPI.c **** 
 412:.\Generated_Source\PSoC5/emFile_1_MMC_HW_SPI.c ****         case 1u:
 413:.\Generated_Source\PSoC5/emFile_1_MMC_HW_SPI.c **** 
 414:.\Generated_Source\PSoC5/emFile_1_MMC_HW_SPI.c ****             emFile_1_SPI1_CS_Write(1u);
 415:.\Generated_Source\PSoC5/emFile_1_MMC_HW_SPI.c **** 
 416:.\Generated_Source\PSoC5/emFile_1_MMC_HW_SPI.c ****             break;
 417:.\Generated_Source\PSoC5/emFile_1_MMC_HW_SPI.c **** 
 418:.\Generated_Source\PSoC5/emFile_1_MMC_HW_SPI.c ****     #endif /* (emFile_1_NUMBER_SD_CARDS >= 2u) */
 419:.\Generated_Source\PSoC5/emFile_1_MMC_HW_SPI.c **** 
 420:.\Generated_Source\PSoC5/emFile_1_MMC_HW_SPI.c ****     #if (emFile_1_NUMBER_SD_CARDS >= 3u)
 421:.\Generated_Source\PSoC5/emFile_1_MMC_HW_SPI.c **** 
 422:.\Generated_Source\PSoC5/emFile_1_MMC_HW_SPI.c ****         case 2u:
 423:.\Generated_Source\PSoC5/emFile_1_MMC_HW_SPI.c **** 
 424:.\Generated_Source\PSoC5/emFile_1_MMC_HW_SPI.c ****             emFile_1_SPI2_CS_Write(1u);
 425:.\Generated_Source\PSoC5/emFile_1_MMC_HW_SPI.c **** 
 426:.\Generated_Source\PSoC5/emFile_1_MMC_HW_SPI.c ****             break;
 427:.\Generated_Source\PSoC5/emFile_1_MMC_HW_SPI.c **** 
 428:.\Generated_Source\PSoC5/emFile_1_MMC_HW_SPI.c ****     #endif /* (emFile_1_NUMBER_SD_CARDS >= 3u) */
 429:.\Generated_Source\PSoC5/emFile_1_MMC_HW_SPI.c **** 
 430:.\Generated_Source\PSoC5/emFile_1_MMC_HW_SPI.c ****     #if (emFile_1_NUMBER_SD_CARDS == 4u)
 431:.\Generated_Source\PSoC5/emFile_1_MMC_HW_SPI.c **** 
 432:.\Generated_Source\PSoC5/emFile_1_MMC_HW_SPI.c ****         case 3u:
 433:.\Generated_Source\PSoC5/emFile_1_MMC_HW_SPI.c **** 
 434:.\Generated_Source\PSoC5/emFile_1_MMC_HW_SPI.c ****             emFile_1_SPI3_CS_Write(1u);
 435:.\Generated_Source\PSoC5/emFile_1_MMC_HW_SPI.c **** 
 436:.\Generated_Source\PSoC5/emFile_1_MMC_HW_SPI.c ****             break;
 437:.\Generated_Source\PSoC5/emFile_1_MMC_HW_SPI.c **** 
 438:.\Generated_Source\PSoC5/emFile_1_MMC_HW_SPI.c ****     #endif /* (emFile_1_NUMBER_SD_CARDS == 4u) */
 439:.\Generated_Source\PSoC5/emFile_1_MMC_HW_SPI.c **** 
 440:.\Generated_Source\PSoC5/emFile_1_MMC_HW_SPI.c ****     default:
 441:.\Generated_Source\PSoC5/emFile_1_MMC_HW_SPI.c **** 
 442:.\Generated_Source\PSoC5/emFile_1_MMC_HW_SPI.c ****         emFile_1_SPI0_CS_Write(1u);
 281              		.loc 1 442 0
 282 001a 4FF00100 		mov	r0, #1
 283 001e FFF7FEFF 		bl	emFile_1_SPI0_CS_Write
 443:.\Generated_Source\PSoC5/emFile_1_MMC_HW_SPI.c ****         
 444:.\Generated_Source\PSoC5/emFile_1_MMC_HW_SPI.c ****         break;
 284              		.loc 1 444 0
 285 0022 00BF     		nop
 286              	.L23:
 445:.\Generated_Source\PSoC5/emFile_1_MMC_HW_SPI.c ****     }
 446:.\Generated_Source\PSoC5/emFile_1_MMC_HW_SPI.c **** }
 287              		.loc 1 446 0
 288 0024 07F10807 		add	r7, r7, #8
 289 0028 BD46     		mov	sp, r7
 290 002a 80BD     		pop	{r7, pc}
 291              		.cfi_endproc
 292              	.LFE59:
 293              		.size	FS_MMC_HW_X_DisableCS, .-FS_MMC_HW_X_DisableCS
 294              		.section	.text.FS_MMC_HW_X_IsWriteProtected,"ax",%progbits
ARM GAS  C:\Users\Jonathan\AppData\Local\Temp\cc5JTZZR.s 			page 14


 295              		.align	2
 296              		.global	FS_MMC_HW_X_IsWriteProtected
 297              		.thumb
 298              		.thumb_func
 299              		.type	FS_MMC_HW_X_IsWriteProtected, %function
 300              	FS_MMC_HW_X_IsWriteProtected:
 301              	.LFB60:
 447:.\Generated_Source\PSoC5/emFile_1_MMC_HW_SPI.c **** 
 448:.\Generated_Source\PSoC5/emFile_1_MMC_HW_SPI.c **** 
 449:.\Generated_Source\PSoC5/emFile_1_MMC_HW_SPI.c **** /*******************************************************************************
 450:.\Generated_Source\PSoC5/emFile_1_MMC_HW_SPI.c **** * Function Name: FS_MMC_HW_X_IsWriteProtected
 451:.\Generated_Source\PSoC5/emFile_1_MMC_HW_SPI.c **** ********************************************************************************
 452:.\Generated_Source\PSoC5/emFile_1_MMC_HW_SPI.c **** *
 453:.\Generated_Source\PSoC5/emFile_1_MMC_HW_SPI.c **** * Summary:
 454:.\Generated_Source\PSoC5/emFile_1_MMC_HW_SPI.c **** *  FS low level function. Returns the state of the physical write
 455:.\Generated_Source\PSoC5/emFile_1_MMC_HW_SPI.c **** *  protection of the SD cards.
 456:.\Generated_Source\PSoC5/emFile_1_MMC_HW_SPI.c **** *
 457:.\Generated_Source\PSoC5/emFile_1_MMC_HW_SPI.c **** * Parameters:
 458:.\Generated_Source\PSoC5/emFile_1_MMC_HW_SPI.c **** *  Unit      - Device Index.
 459:.\Generated_Source\PSoC5/emFile_1_MMC_HW_SPI.c **** *
 460:.\Generated_Source\PSoC5/emFile_1_MMC_HW_SPI.c **** * Return:
 461:.\Generated_Source\PSoC5/emFile_1_MMC_HW_SPI.c **** *    1       - the card is write protected;
 462:.\Generated_Source\PSoC5/emFile_1_MMC_HW_SPI.c **** *    0       - the card is not write protected.
 463:.\Generated_Source\PSoC5/emFile_1_MMC_HW_SPI.c **** *
 464:.\Generated_Source\PSoC5/emFile_1_MMC_HW_SPI.c **** * Reentrant:
 465:.\Generated_Source\PSoC5/emFile_1_MMC_HW_SPI.c **** *  No
 466:.\Generated_Source\PSoC5/emFile_1_MMC_HW_SPI.c **** *
 467:.\Generated_Source\PSoC5/emFile_1_MMC_HW_SPI.c **** *******************************************************************************/
 468:.\Generated_Source\PSoC5/emFile_1_MMC_HW_SPI.c **** int FS_MMC_HW_X_IsWriteProtected(U8 Unit)
 469:.\Generated_Source\PSoC5/emFile_1_MMC_HW_SPI.c **** {
 302              		.loc 1 469 0
 303              		.cfi_startproc
 304              		@ args = 0, pretend = 0, frame = 16
 305              		@ frame_needed = 1, uses_anonymous_args = 0
 306              		@ link register save eliminated.
 307 0000 80B4     		push	{r7}
 308              	.LCFI12:
 309              		.cfi_def_cfa_offset 4
 310              		.cfi_offset 7, -4
 311 0002 85B0     		sub	sp, sp, #20
 312              	.LCFI13:
 313              		.cfi_def_cfa_offset 24
 314 0004 00AF     		add	r7, sp, #0
 315              	.LCFI14:
 316              		.cfi_def_cfa_register 7
 317 0006 0346     		mov	r3, r0
 318 0008 FB71     		strb	r3, [r7, #7]
 470:.\Generated_Source\PSoC5/emFile_1_MMC_HW_SPI.c ****    int wpState;
 471:.\Generated_Source\PSoC5/emFile_1_MMC_HW_SPI.c **** 
 472:.\Generated_Source\PSoC5/emFile_1_MMC_HW_SPI.c ****     switch(Unit)
 319              		.loc 1 472 0
 320 000a FB79     		ldrb	r3, [r7, #7]	@ zero_extendqisi2
 321 000c 002B     		cmp	r3, #0
 322 000e 03D1     		bne	.L33
 323              	.L30:
 473:.\Generated_Source\PSoC5/emFile_1_MMC_HW_SPI.c ****     {
 474:.\Generated_Source\PSoC5/emFile_1_MMC_HW_SPI.c ****     case 0u:
ARM GAS  C:\Users\Jonathan\AppData\Local\Temp\cc5JTZZR.s 			page 15


 475:.\Generated_Source\PSoC5/emFile_1_MMC_HW_SPI.c **** 
 476:.\Generated_Source\PSoC5/emFile_1_MMC_HW_SPI.c ****         #if (emFile_1_WP0_EN)
 477:.\Generated_Source\PSoC5/emFile_1_MMC_HW_SPI.c **** 
 478:.\Generated_Source\PSoC5/emFile_1_MMC_HW_SPI.c ****             /* Based on physical switch state */
 479:.\Generated_Source\PSoC5/emFile_1_MMC_HW_SPI.c ****               wpState = (int)emFile_1_SPI0_WP_Read();
 480:.\Generated_Source\PSoC5/emFile_1_MMC_HW_SPI.c **** 
 481:.\Generated_Source\PSoC5/emFile_1_MMC_HW_SPI.c ****         #else
 482:.\Generated_Source\PSoC5/emFile_1_MMC_HW_SPI.c **** 
 483:.\Generated_Source\PSoC5/emFile_1_MMC_HW_SPI.c ****             wpState = 0;
 324              		.loc 1 483 0
 325 0010 4FF00003 		mov	r3, #0
 326 0014 FB60     		str	r3, [r7, #12]
 484:.\Generated_Source\PSoC5/emFile_1_MMC_HW_SPI.c **** 
 485:.\Generated_Source\PSoC5/emFile_1_MMC_HW_SPI.c ****         #endif /* (emFile_1_WP0_EN) */
 486:.\Generated_Source\PSoC5/emFile_1_MMC_HW_SPI.c **** 
 487:.\Generated_Source\PSoC5/emFile_1_MMC_HW_SPI.c ****         break;
 327              		.loc 1 487 0
 328 0016 03E0     		b	.L31
 329              	.L33:
 488:.\Generated_Source\PSoC5/emFile_1_MMC_HW_SPI.c **** 
 489:.\Generated_Source\PSoC5/emFile_1_MMC_HW_SPI.c ****     #if (emFile_1_NUMBER_SD_CARDS >= 2u)
 490:.\Generated_Source\PSoC5/emFile_1_MMC_HW_SPI.c **** 
 491:.\Generated_Source\PSoC5/emFile_1_MMC_HW_SPI.c ****         case 1u:
 492:.\Generated_Source\PSoC5/emFile_1_MMC_HW_SPI.c **** 
 493:.\Generated_Source\PSoC5/emFile_1_MMC_HW_SPI.c ****             #if (emFile_1_WP1_EN)
 494:.\Generated_Source\PSoC5/emFile_1_MMC_HW_SPI.c **** 
 495:.\Generated_Source\PSoC5/emFile_1_MMC_HW_SPI.c ****                    /* Based on physical switch state */
 496:.\Generated_Source\PSoC5/emFile_1_MMC_HW_SPI.c ****                 wpState = (int)emFile_1_SPI1_WP_Read();
 497:.\Generated_Source\PSoC5/emFile_1_MMC_HW_SPI.c **** 
 498:.\Generated_Source\PSoC5/emFile_1_MMC_HW_SPI.c ****             #else
 499:.\Generated_Source\PSoC5/emFile_1_MMC_HW_SPI.c **** 
 500:.\Generated_Source\PSoC5/emFile_1_MMC_HW_SPI.c ****                 wpState = 0;
 501:.\Generated_Source\PSoC5/emFile_1_MMC_HW_SPI.c **** 
 502:.\Generated_Source\PSoC5/emFile_1_MMC_HW_SPI.c ****             #endif /* (emFile_1_WP1_EN) */
 503:.\Generated_Source\PSoC5/emFile_1_MMC_HW_SPI.c **** 
 504:.\Generated_Source\PSoC5/emFile_1_MMC_HW_SPI.c ****             break;
 505:.\Generated_Source\PSoC5/emFile_1_MMC_HW_SPI.c **** 
 506:.\Generated_Source\PSoC5/emFile_1_MMC_HW_SPI.c ****     #endif /* (emFile_1_NUMBER_SD_CARDS >= 2u) */
 507:.\Generated_Source\PSoC5/emFile_1_MMC_HW_SPI.c **** 
 508:.\Generated_Source\PSoC5/emFile_1_MMC_HW_SPI.c ****     #if (emFile_1_NUMBER_SD_CARDS >= 3u)
 509:.\Generated_Source\PSoC5/emFile_1_MMC_HW_SPI.c **** 
 510:.\Generated_Source\PSoC5/emFile_1_MMC_HW_SPI.c ****         case 2u:
 511:.\Generated_Source\PSoC5/emFile_1_MMC_HW_SPI.c **** 
 512:.\Generated_Source\PSoC5/emFile_1_MMC_HW_SPI.c ****             #if (emFile_1_WP2_EN)
 513:.\Generated_Source\PSoC5/emFile_1_MMC_HW_SPI.c **** 
 514:.\Generated_Source\PSoC5/emFile_1_MMC_HW_SPI.c ****                   /* Based on physical switch state */
 515:.\Generated_Source\PSoC5/emFile_1_MMC_HW_SPI.c ****                 wpState = (int)emFile_1_SPI2_WP_Read();
 516:.\Generated_Source\PSoC5/emFile_1_MMC_HW_SPI.c **** 
 517:.\Generated_Source\PSoC5/emFile_1_MMC_HW_SPI.c ****             #else
 518:.\Generated_Source\PSoC5/emFile_1_MMC_HW_SPI.c **** 
 519:.\Generated_Source\PSoC5/emFile_1_MMC_HW_SPI.c ****                 wpState = 0;
 520:.\Generated_Source\PSoC5/emFile_1_MMC_HW_SPI.c **** 
 521:.\Generated_Source\PSoC5/emFile_1_MMC_HW_SPI.c ****             #endif /* (emFile_1_WP2_EN) */
 522:.\Generated_Source\PSoC5/emFile_1_MMC_HW_SPI.c **** 
 523:.\Generated_Source\PSoC5/emFile_1_MMC_HW_SPI.c ****             break;
 524:.\Generated_Source\PSoC5/emFile_1_MMC_HW_SPI.c **** 
 525:.\Generated_Source\PSoC5/emFile_1_MMC_HW_SPI.c ****     #endif /* (emFile_1_NUMBER_SD_CARDS >= 3u) */
ARM GAS  C:\Users\Jonathan\AppData\Local\Temp\cc5JTZZR.s 			page 16


 526:.\Generated_Source\PSoC5/emFile_1_MMC_HW_SPI.c **** 
 527:.\Generated_Source\PSoC5/emFile_1_MMC_HW_SPI.c ****     #if (emFile_1_NUMBER_SD_CARDS == 4u)
 528:.\Generated_Source\PSoC5/emFile_1_MMC_HW_SPI.c **** 
 529:.\Generated_Source\PSoC5/emFile_1_MMC_HW_SPI.c ****         case 3u:
 530:.\Generated_Source\PSoC5/emFile_1_MMC_HW_SPI.c **** 
 531:.\Generated_Source\PSoC5/emFile_1_MMC_HW_SPI.c ****             #if (emFile_1_WP3_EN)
 532:.\Generated_Source\PSoC5/emFile_1_MMC_HW_SPI.c **** 
 533:.\Generated_Source\PSoC5/emFile_1_MMC_HW_SPI.c ****                 /* Based on physical switch state */
 534:.\Generated_Source\PSoC5/emFile_1_MMC_HW_SPI.c ****                 wpState = (int)emFile_1_SPI3_WP_Read();
 535:.\Generated_Source\PSoC5/emFile_1_MMC_HW_SPI.c **** 
 536:.\Generated_Source\PSoC5/emFile_1_MMC_HW_SPI.c ****             #else
 537:.\Generated_Source\PSoC5/emFile_1_MMC_HW_SPI.c **** 
 538:.\Generated_Source\PSoC5/emFile_1_MMC_HW_SPI.c ****                 wpState = 0;
 539:.\Generated_Source\PSoC5/emFile_1_MMC_HW_SPI.c **** 
 540:.\Generated_Source\PSoC5/emFile_1_MMC_HW_SPI.c ****             #endif /* (emFile_1_WP3_EN) */
 541:.\Generated_Source\PSoC5/emFile_1_MMC_HW_SPI.c **** 
 542:.\Generated_Source\PSoC5/emFile_1_MMC_HW_SPI.c ****             break;
 543:.\Generated_Source\PSoC5/emFile_1_MMC_HW_SPI.c **** 
 544:.\Generated_Source\PSoC5/emFile_1_MMC_HW_SPI.c ****     #endif /* (emFile_1_NUMBER_SD_CARDS == 4u) */
 545:.\Generated_Source\PSoC5/emFile_1_MMC_HW_SPI.c **** 
 546:.\Generated_Source\PSoC5/emFile_1_MMC_HW_SPI.c ****     default:
 547:.\Generated_Source\PSoC5/emFile_1_MMC_HW_SPI.c **** 
 548:.\Generated_Source\PSoC5/emFile_1_MMC_HW_SPI.c ****         #if (emFile_1_WP0_EN)
 549:.\Generated_Source\PSoC5/emFile_1_MMC_HW_SPI.c **** 
 550:.\Generated_Source\PSoC5/emFile_1_MMC_HW_SPI.c ****               /* Based on physical switch state */
 551:.\Generated_Source\PSoC5/emFile_1_MMC_HW_SPI.c ****             wpState = (int)emFile_1_SPI0_WP_Read();
 552:.\Generated_Source\PSoC5/emFile_1_MMC_HW_SPI.c **** 
 553:.\Generated_Source\PSoC5/emFile_1_MMC_HW_SPI.c ****         #else
 554:.\Generated_Source\PSoC5/emFile_1_MMC_HW_SPI.c **** 
 555:.\Generated_Source\PSoC5/emFile_1_MMC_HW_SPI.c ****             wpState = 0;
 330              		.loc 1 555 0
 331 0018 4FF00003 		mov	r3, #0
 332 001c FB60     		str	r3, [r7, #12]
 556:.\Generated_Source\PSoC5/emFile_1_MMC_HW_SPI.c **** 
 557:.\Generated_Source\PSoC5/emFile_1_MMC_HW_SPI.c ****         #endif /* (emFile_1_WP0_EN) */
 558:.\Generated_Source\PSoC5/emFile_1_MMC_HW_SPI.c ****         
 559:.\Generated_Source\PSoC5/emFile_1_MMC_HW_SPI.c ****         break;
 333              		.loc 1 559 0
 334 001e 00BF     		nop
 335              	.L31:
 560:.\Generated_Source\PSoC5/emFile_1_MMC_HW_SPI.c ****     }
 561:.\Generated_Source\PSoC5/emFile_1_MMC_HW_SPI.c **** 
 562:.\Generated_Source\PSoC5/emFile_1_MMC_HW_SPI.c ****     return(wpState);
 336              		.loc 1 562 0
 337 0020 FB68     		ldr	r3, [r7, #12]
 563:.\Generated_Source\PSoC5/emFile_1_MMC_HW_SPI.c **** }
 338              		.loc 1 563 0
 339 0022 1846     		mov	r0, r3
 340 0024 07F11407 		add	r7, r7, #20
 341 0028 BD46     		mov	sp, r7
 342 002a 80BC     		pop	{r7}
 343 002c 7047     		bx	lr
 344              		.cfi_endproc
 345              	.LFE60:
 346              		.size	FS_MMC_HW_X_IsWriteProtected, .-FS_MMC_HW_X_IsWriteProtected
 347 002e 00BF     		.section	.text.FS_MMC_HW_X_SetMaxSpeed,"ax",%progbits
 348              		.align	2
ARM GAS  C:\Users\Jonathan\AppData\Local\Temp\cc5JTZZR.s 			page 17


 349              		.global	FS_MMC_HW_X_SetMaxSpeed
 350              		.thumb
 351              		.thumb_func
 352              		.type	FS_MMC_HW_X_SetMaxSpeed, %function
 353              	FS_MMC_HW_X_SetMaxSpeed:
 354              	.LFB61:
 564:.\Generated_Source\PSoC5/emFile_1_MMC_HW_SPI.c **** 
 565:.\Generated_Source\PSoC5/emFile_1_MMC_HW_SPI.c **** 
 566:.\Generated_Source\PSoC5/emFile_1_MMC_HW_SPI.c **** /*******************************************************************************
 567:.\Generated_Source\PSoC5/emFile_1_MMC_HW_SPI.c **** * Function Name: FS_MMC_HW_X_SetMaxSpeed
 568:.\Generated_Source\PSoC5/emFile_1_MMC_HW_SPI.c **** ********************************************************************************
 569:.\Generated_Source\PSoC5/emFile_1_MMC_HW_SPI.c **** *
 570:.\Generated_Source\PSoC5/emFile_1_MMC_HW_SPI.c **** * Summary:
 571:.\Generated_Source\PSoC5/emFile_1_MMC_HW_SPI.c **** *  FS low level function. Sets the SPI interface to a maximum frequency.
 572:.\Generated_Source\PSoC5/emFile_1_MMC_HW_SPI.c **** *  Make sure that you set the frequency lower or equal but never higher
 573:.\Generated_Source\PSoC5/emFile_1_MMC_HW_SPI.c **** *  than the given value. Recommended startup frequency is 100kHz - 400kHz.
 574:.\Generated_Source\PSoC5/emFile_1_MMC_HW_SPI.c **** *
 575:.\Generated_Source\PSoC5/emFile_1_MMC_HW_SPI.c **** * Parameters:
 576:.\Generated_Source\PSoC5/emFile_1_MMC_HW_SPI.c **** *  Unit             - Device Index;
 577:.\Generated_Source\PSoC5/emFile_1_MMC_HW_SPI.c **** *  MaxFreq          - SPI clock frequency in kHz.
 578:.\Generated_Source\PSoC5/emFile_1_MMC_HW_SPI.c **** *
 579:.\Generated_Source\PSoC5/emFile_1_MMC_HW_SPI.c **** * Return:
 580:.\Generated_Source\PSoC5/emFile_1_MMC_HW_SPI.c **** *  max. frequency   - the maximum frequency set in kHz;
 581:.\Generated_Source\PSoC5/emFile_1_MMC_HW_SPI.c **** *  0                - the frequency could not be set.
 582:.\Generated_Source\PSoC5/emFile_1_MMC_HW_SPI.c **** *
 583:.\Generated_Source\PSoC5/emFile_1_MMC_HW_SPI.c **** * Reentrant:
 584:.\Generated_Source\PSoC5/emFile_1_MMC_HW_SPI.c **** *  No
 585:.\Generated_Source\PSoC5/emFile_1_MMC_HW_SPI.c **** *
 586:.\Generated_Source\PSoC5/emFile_1_MMC_HW_SPI.c **** *******************************************************************************/
 587:.\Generated_Source\PSoC5/emFile_1_MMC_HW_SPI.c **** U16 FS_MMC_HW_X_SetMaxSpeed(U8 Unit, U16 MaxFreq)
 588:.\Generated_Source\PSoC5/emFile_1_MMC_HW_SPI.c **** {
 355              		.loc 1 588 0
 356              		.cfi_startproc
 357              		@ args = 0, pretend = 0, frame = 16
 358              		@ frame_needed = 1, uses_anonymous_args = 0
 359 0000 80B5     		push	{r7, lr}
 360              	.LCFI15:
 361              		.cfi_def_cfa_offset 8
 362              		.cfi_offset 7, -8
 363              		.cfi_offset 14, -4
 364 0002 84B0     		sub	sp, sp, #16
 365              	.LCFI16:
 366              		.cfi_def_cfa_offset 24
 367 0004 00AF     		add	r7, sp, #0
 368              	.LCFI17:
 369              		.cfi_def_cfa_register 7
 370 0006 0246     		mov	r2, r0
 371 0008 0B46     		mov	r3, r1
 372 000a FA71     		strb	r2, [r7, #7]
 373 000c BB80     		strh	r3, [r7, #4]	@ movhi
 589:.\Generated_Source\PSoC5/emFile_1_MMC_HW_SPI.c ****     U16 freq;
 590:.\Generated_Source\PSoC5/emFile_1_MMC_HW_SPI.c ****     U32 divResult;
 591:.\Generated_Source\PSoC5/emFile_1_MMC_HW_SPI.c **** 
 592:.\Generated_Source\PSoC5/emFile_1_MMC_HW_SPI.c ****     if(MaxFreq < emFile_1_STARTUP_FREQ)
 374              		.loc 1 592 0
 375 000e BA88     		ldrh	r2, [r7, #4]
 376 0010 40F28F13 		movw	r3, #399
ARM GAS  C:\Users\Jonathan\AppData\Local\Temp\cc5JTZZR.s 			page 18


 377 0014 9A42     		cmp	r2, r3
 378 0016 03D8     		bhi	.L35
 593:.\Generated_Source\PSoC5/emFile_1_MMC_HW_SPI.c ****     {
 594:.\Generated_Source\PSoC5/emFile_1_MMC_HW_SPI.c ****         MaxFreq = emFile_1_STARTUP_FREQ;
 379              		.loc 1 594 0
 380 0018 4FF4C873 		mov	r3, #400
 381 001c BB80     		strh	r3, [r7, #4]	@ movhi
 382 001e 06E0     		b	.L36
 383              	.L35:
 595:.\Generated_Source\PSoC5/emFile_1_MMC_HW_SPI.c ****     }
 596:.\Generated_Source\PSoC5/emFile_1_MMC_HW_SPI.c ****     else if(MaxFreq > emFile_1_MAX_SPI_FREQ)
 384              		.loc 1 596 0
 385 0020 BB88     		ldrh	r3, [r7, #4]
 386 0022 B3F57A6F 		cmp	r3, #4000
 387 0026 02D9     		bls	.L36
 597:.\Generated_Source\PSoC5/emFile_1_MMC_HW_SPI.c ****     {
 598:.\Generated_Source\PSoC5/emFile_1_MMC_HW_SPI.c ****         MaxFreq = emFile_1_MAX_SPI_FREQ;
 388              		.loc 1 598 0
 389 0028 4FF47A63 		mov	r3, #4000
 390 002c BB80     		strh	r3, [r7, #4]	@ movhi
 391              	.L36:
 599:.\Generated_Source\PSoC5/emFile_1_MMC_HW_SPI.c ****     }
 600:.\Generated_Source\PSoC5/emFile_1_MMC_HW_SPI.c ****     else
 601:.\Generated_Source\PSoC5/emFile_1_MMC_HW_SPI.c ****     {
 602:.\Generated_Source\PSoC5/emFile_1_MMC_HW_SPI.c ****         /* Do nothing */
 603:.\Generated_Source\PSoC5/emFile_1_MMC_HW_SPI.c ****     }
 604:.\Generated_Source\PSoC5/emFile_1_MMC_HW_SPI.c **** 
 605:.\Generated_Source\PSoC5/emFile_1_MMC_HW_SPI.c ****     freq = MaxFreq << 1u;
 392              		.loc 1 605 0
 393 002e BB88     		ldrh	r3, [r7, #4]	@ movhi
 394 0030 4FEA4303 		lsl	r3, r3, #1
 395 0034 FB81     		strh	r3, [r7, #14]	@ movhi
 606:.\Generated_Source\PSoC5/emFile_1_MMC_HW_SPI.c **** 
 607:.\Generated_Source\PSoC5/emFile_1_MMC_HW_SPI.c ****     divResult = ((U32) BCLK__BUS_CLK__KHZ)/((U32) freq);
 396              		.loc 1 607 0
 397 0036 FB89     		ldrh	r3, [r7, #14]
 398 0038 45F6C052 		movw	r2, #24000
 399 003c B2FBF3F3 		udiv	r3, r2, r3
 400 0040 9BB2     		uxth	r3, r3
 401 0042 BB60     		str	r3, [r7, #8]
 608:.\Generated_Source\PSoC5/emFile_1_MMC_HW_SPI.c **** 
 609:.\Generated_Source\PSoC5/emFile_1_MMC_HW_SPI.c ****     switch(Unit)
 402              		.loc 1 609 0
 403 0044 FB79     		ldrb	r3, [r7, #7]	@ zero_extendqisi2
 404 0046 002B     		cmp	r3, #0
 405 0048 0ED1     		bne	.L41
 406              	.L38:
 610:.\Generated_Source\PSoC5/emFile_1_MMC_HW_SPI.c ****     {
 611:.\Generated_Source\PSoC5/emFile_1_MMC_HW_SPI.c ****         case 0u:
 612:.\Generated_Source\PSoC5/emFile_1_MMC_HW_SPI.c ****             emFile_1_Clock_1_Stop();
 407              		.loc 1 612 0
 408 004a FFF7FEFF 		bl	emFile_1_Clock_1_Stop
 613:.\Generated_Source\PSoC5/emFile_1_MMC_HW_SPI.c ****             emFile_1_Clock_1_SetDividerValue((U16)divResult);    /* update the frequency */
 409              		.loc 1 613 0
 410 004e BB68     		ldr	r3, [r7, #8]
 411 0050 9BB2     		uxth	r3, r3
 412 0052 03F1FF33 		add	r3, r3, #-1
ARM GAS  C:\Users\Jonathan\AppData\Local\Temp\cc5JTZZR.s 			page 19


 413 0056 9BB2     		uxth	r3, r3
 414 0058 1846     		mov	r0, r3
 415 005a 4FF00101 		mov	r1, #1
 416 005e FFF7FEFF 		bl	emFile_1_Clock_1_SetDividerRegister
 614:.\Generated_Source\PSoC5/emFile_1_MMC_HW_SPI.c ****             emFile_1_Clock_1_Start();
 417              		.loc 1 614 0
 418 0062 FFF7FEFF 		bl	emFile_1_Clock_1_Start
 615:.\Generated_Source\PSoC5/emFile_1_MMC_HW_SPI.c ****             break;
 419              		.loc 1 615 0
 420 0066 0EE0     		b	.L39
 421              	.L41:
 616:.\Generated_Source\PSoC5/emFile_1_MMC_HW_SPI.c **** 
 617:.\Generated_Source\PSoC5/emFile_1_MMC_HW_SPI.c ****         #if (emFile_1_NUMBER_SD_CARDS >= 2u)
 618:.\Generated_Source\PSoC5/emFile_1_MMC_HW_SPI.c **** 
 619:.\Generated_Source\PSoC5/emFile_1_MMC_HW_SPI.c ****         case 1u:
 620:.\Generated_Source\PSoC5/emFile_1_MMC_HW_SPI.c **** 
 621:.\Generated_Source\PSoC5/emFile_1_MMC_HW_SPI.c ****             emFile_1_Clock_2_Stop();
 622:.\Generated_Source\PSoC5/emFile_1_MMC_HW_SPI.c ****             emFile_1_Clock_2_SetDividerValue((U16)divResult);    /* update the frequency */
 623:.\Generated_Source\PSoC5/emFile_1_MMC_HW_SPI.c ****             emFile_1_Clock_2_Start();
 624:.\Generated_Source\PSoC5/emFile_1_MMC_HW_SPI.c ****             break;
 625:.\Generated_Source\PSoC5/emFile_1_MMC_HW_SPI.c **** 
 626:.\Generated_Source\PSoC5/emFile_1_MMC_HW_SPI.c ****         #endif /* (emFile_1_NUMBER_SD_CARDS >= 2u) */
 627:.\Generated_Source\PSoC5/emFile_1_MMC_HW_SPI.c **** 
 628:.\Generated_Source\PSoC5/emFile_1_MMC_HW_SPI.c ****         #if (emFile_1_NUMBER_SD_CARDS >= 3u)
 629:.\Generated_Source\PSoC5/emFile_1_MMC_HW_SPI.c **** 
 630:.\Generated_Source\PSoC5/emFile_1_MMC_HW_SPI.c ****         case 2u:
 631:.\Generated_Source\PSoC5/emFile_1_MMC_HW_SPI.c **** 
 632:.\Generated_Source\PSoC5/emFile_1_MMC_HW_SPI.c ****             emFile_1_Clock_3_Stop();
 633:.\Generated_Source\PSoC5/emFile_1_MMC_HW_SPI.c ****             emFile_1_Clock_3_SetDividerValue((U16)divResult);    /* update the frequency */
 634:.\Generated_Source\PSoC5/emFile_1_MMC_HW_SPI.c ****             emFile_1_Clock_3_Start();
 635:.\Generated_Source\PSoC5/emFile_1_MMC_HW_SPI.c ****             break;
 636:.\Generated_Source\PSoC5/emFile_1_MMC_HW_SPI.c **** 
 637:.\Generated_Source\PSoC5/emFile_1_MMC_HW_SPI.c ****         #endif /* (emFile_1_NUMBER_SD_CARDS >= 3u) */
 638:.\Generated_Source\PSoC5/emFile_1_MMC_HW_SPI.c **** 
 639:.\Generated_Source\PSoC5/emFile_1_MMC_HW_SPI.c ****         #if (emFile_1_NUMBER_SD_CARDS == 4u)
 640:.\Generated_Source\PSoC5/emFile_1_MMC_HW_SPI.c **** 
 641:.\Generated_Source\PSoC5/emFile_1_MMC_HW_SPI.c ****         case 3u:
 642:.\Generated_Source\PSoC5/emFile_1_MMC_HW_SPI.c **** 
 643:.\Generated_Source\PSoC5/emFile_1_MMC_HW_SPI.c ****             emFile_1_Clock_4_Stop();
 644:.\Generated_Source\PSoC5/emFile_1_MMC_HW_SPI.c ****             emFile_1_Clock_4_SetDividerValue((U16)divResult);    /* update the frequency */
 645:.\Generated_Source\PSoC5/emFile_1_MMC_HW_SPI.c ****             emFile_1_Clock_4_Start();
 646:.\Generated_Source\PSoC5/emFile_1_MMC_HW_SPI.c ****             break;
 647:.\Generated_Source\PSoC5/emFile_1_MMC_HW_SPI.c **** 
 648:.\Generated_Source\PSoC5/emFile_1_MMC_HW_SPI.c ****         #endif /* (emFile_1_NUMBER_SD_CARDS == 4u) */
 649:.\Generated_Source\PSoC5/emFile_1_MMC_HW_SPI.c **** 
 650:.\Generated_Source\PSoC5/emFile_1_MMC_HW_SPI.c ****         default:
 651:.\Generated_Source\PSoC5/emFile_1_MMC_HW_SPI.c ****             emFile_1_Clock_1_Stop();
 422              		.loc 1 651 0
 423 0068 FFF7FEFF 		bl	emFile_1_Clock_1_Stop
 652:.\Generated_Source\PSoC5/emFile_1_MMC_HW_SPI.c ****             emFile_1_Clock_1_SetDividerValue((U16)divResult);    /* update the frequency */
 424              		.loc 1 652 0
 425 006c BB68     		ldr	r3, [r7, #8]
 426 006e 9BB2     		uxth	r3, r3
 427 0070 03F1FF33 		add	r3, r3, #-1
 428 0074 9BB2     		uxth	r3, r3
 429 0076 1846     		mov	r0, r3
 430 0078 4FF00101 		mov	r1, #1
ARM GAS  C:\Users\Jonathan\AppData\Local\Temp\cc5JTZZR.s 			page 20


 431 007c FFF7FEFF 		bl	emFile_1_Clock_1_SetDividerRegister
 653:.\Generated_Source\PSoC5/emFile_1_MMC_HW_SPI.c ****             emFile_1_Clock_1_Start();
 432              		.loc 1 653 0
 433 0080 FFF7FEFF 		bl	emFile_1_Clock_1_Start
 654:.\Generated_Source\PSoC5/emFile_1_MMC_HW_SPI.c ****             break;
 434              		.loc 1 654 0
 435 0084 00BF     		nop
 436              	.L39:
 655:.\Generated_Source\PSoC5/emFile_1_MMC_HW_SPI.c ****     }
 656:.\Generated_Source\PSoC5/emFile_1_MMC_HW_SPI.c **** 
 657:.\Generated_Source\PSoC5/emFile_1_MMC_HW_SPI.c ****     return (MaxFreq);
 437              		.loc 1 657 0
 438 0086 BB88     		ldrh	r3, [r7, #4]
 658:.\Generated_Source\PSoC5/emFile_1_MMC_HW_SPI.c **** 
 659:.\Generated_Source\PSoC5/emFile_1_MMC_HW_SPI.c **** }
 439              		.loc 1 659 0
 440 0088 1846     		mov	r0, r3
 441 008a 07F11007 		add	r7, r7, #16
 442 008e BD46     		mov	sp, r7
 443 0090 80BD     		pop	{r7, pc}
 444              		.cfi_endproc
 445              	.LFE61:
 446              		.size	FS_MMC_HW_X_SetMaxSpeed, .-FS_MMC_HW_X_SetMaxSpeed
 447 0092 00BF     		.section	.text.FS_MMC_HW_X_SetVoltage,"ax",%progbits
 448              		.align	2
 449              		.global	FS_MMC_HW_X_SetVoltage
 450              		.thumb
 451              		.thumb_func
 452              		.type	FS_MMC_HW_X_SetVoltage, %function
 453              	FS_MMC_HW_X_SetVoltage:
 454              	.LFB62:
 660:.\Generated_Source\PSoC5/emFile_1_MMC_HW_SPI.c **** 
 661:.\Generated_Source\PSoC5/emFile_1_MMC_HW_SPI.c **** 
 662:.\Generated_Source\PSoC5/emFile_1_MMC_HW_SPI.c **** /*******************************************************************************
 663:.\Generated_Source\PSoC5/emFile_1_MMC_HW_SPI.c **** * Function Name: FS_MMC_HW_X_SetVoltage
 664:.\Generated_Source\PSoC5/emFile_1_MMC_HW_SPI.c **** ********************************************************************************
 665:.\Generated_Source\PSoC5/emFile_1_MMC_HW_SPI.c **** *
 666:.\Generated_Source\PSoC5/emFile_1_MMC_HW_SPI.c **** * Summary:
 667:.\Generated_Source\PSoC5/emFile_1_MMC_HW_SPI.c **** *  FS low level function. Be sure that your card slot si within the given
 668:.\Generated_Source\PSoC5/emFile_1_MMC_HW_SPI.c **** *  voltage range. Return 1 if your slot can support the required voltage,
 669:.\Generated_Source\PSoC5/emFile_1_MMC_HW_SPI.c **** *  and if not, return 0.
 670:.\Generated_Source\PSoC5/emFile_1_MMC_HW_SPI.c **** *
 671:.\Generated_Source\PSoC5/emFile_1_MMC_HW_SPI.c **** * Parameters:
 672:.\Generated_Source\PSoC5/emFile_1_MMC_HW_SPI.c **** *  Unit             - Device Index;
 673:.\Generated_Source\PSoC5/emFile_1_MMC_HW_SPI.c **** *  Vmin             - Minimum supply voltage in mV;
 674:.\Generated_Source\PSoC5/emFile_1_MMC_HW_SPI.c **** *  Vmin             - Maximum supply voltage in mV.
 675:.\Generated_Source\PSoC5/emFile_1_MMC_HW_SPI.c **** *
 676:.\Generated_Source\PSoC5/emFile_1_MMC_HW_SPI.c **** * Return:
 677:.\Generated_Source\PSoC5/emFile_1_MMC_HW_SPI.c **** *  1                - the card slot supports the voltage range;
 678:.\Generated_Source\PSoC5/emFile_1_MMC_HW_SPI.c **** *  0                - the card slot does not support the voltage range.
 679:.\Generated_Source\PSoC5/emFile_1_MMC_HW_SPI.c **** *
 680:.\Generated_Source\PSoC5/emFile_1_MMC_HW_SPI.c **** * Reentrant:
 681:.\Generated_Source\PSoC5/emFile_1_MMC_HW_SPI.c **** *  No
 682:.\Generated_Source\PSoC5/emFile_1_MMC_HW_SPI.c **** *
 683:.\Generated_Source\PSoC5/emFile_1_MMC_HW_SPI.c **** *******************************************************************************/
 684:.\Generated_Source\PSoC5/emFile_1_MMC_HW_SPI.c **** int FS_MMC_HW_X_SetVoltage(U8 Unit, U16 Vmin, U16 Vmax)
 685:.\Generated_Source\PSoC5/emFile_1_MMC_HW_SPI.c **** {
ARM GAS  C:\Users\Jonathan\AppData\Local\Temp\cc5JTZZR.s 			page 21


 455              		.loc 1 685 0
 456              		.cfi_startproc
 457              		@ args = 0, pretend = 0, frame = 16
 458              		@ frame_needed = 1, uses_anonymous_args = 0
 459              		@ link register save eliminated.
 460 0000 80B4     		push	{r7}
 461              	.LCFI18:
 462              		.cfi_def_cfa_offset 4
 463              		.cfi_offset 7, -4
 464 0002 85B0     		sub	sp, sp, #20
 465              	.LCFI19:
 466              		.cfi_def_cfa_offset 24
 467 0004 00AF     		add	r7, sp, #0
 468              	.LCFI20:
 469              		.cfi_def_cfa_register 7
 470 0006 1346     		mov	r3, r2
 471 0008 0246     		mov	r2, r0
 472 000a FA71     		strb	r2, [r7, #7]
 473 000c 0A46     		mov	r2, r1	@ movhi
 474 000e BA80     		strh	r2, [r7, #4]	@ movhi
 475 0010 7B80     		strh	r3, [r7, #2]	@ movhi
 686:.\Generated_Source\PSoC5/emFile_1_MMC_HW_SPI.c ****     int result;
 687:.\Generated_Source\PSoC5/emFile_1_MMC_HW_SPI.c **** 
 688:.\Generated_Source\PSoC5/emFile_1_MMC_HW_SPI.c ****     switch(Unit)
 476              		.loc 1 688 0
 477 0012 FB79     		ldrb	r3, [r7, #7]	@ zero_extendqisi2
 478 0014 03F10003 		add	r3, r3, #0
 479 0018 032B     		cmp	r3, #3
 480 001a 11D8     		bhi	.L43
 689:.\Generated_Source\PSoC5/emFile_1_MMC_HW_SPI.c ****     {
 690:.\Generated_Source\PSoC5/emFile_1_MMC_HW_SPI.c ****     case 0u:
 691:.\Generated_Source\PSoC5/emFile_1_MMC_HW_SPI.c **** 
 692:.\Generated_Source\PSoC5/emFile_1_MMC_HW_SPI.c ****     case 1u:
 693:.\Generated_Source\PSoC5/emFile_1_MMC_HW_SPI.c **** 
 694:.\Generated_Source\PSoC5/emFile_1_MMC_HW_SPI.c ****     case 2u:
 695:.\Generated_Source\PSoC5/emFile_1_MMC_HW_SPI.c **** 
 696:.\Generated_Source\PSoC5/emFile_1_MMC_HW_SPI.c ****     case 3u:
 697:.\Generated_Source\PSoC5/emFile_1_MMC_HW_SPI.c **** 
 698:.\Generated_Source\PSoC5/emFile_1_MMC_HW_SPI.c ****         if((Vmin <= emFile_1_MMC_DEFAULT_SUPPLY_VOLTAGE) &&
 481              		.loc 1 698 0
 482 001c BA88     		ldrh	r2, [r7, #4]
 483 001e 40F6E443 		movw	r3, #3300
 484 0022 9A42     		cmp	r2, r3
 485 0024 08D8     		bhi	.L45
 486              		.loc 1 698 0 is_stmt 0 discriminator 1
 487 0026 7A88     		ldrh	r2, [r7, #2]
 488 0028 40F6E343 		movw	r3, #3299
 489 002c 9A42     		cmp	r2, r3
 490 002e 03D9     		bls	.L45
 699:.\Generated_Source\PSoC5/emFile_1_MMC_HW_SPI.c ****             (emFile_1_MMC_DEFAULT_SUPPLY_VOLTAGE <= Vmax))
 700:.\Generated_Source\PSoC5/emFile_1_MMC_HW_SPI.c ****         {
 701:.\Generated_Source\PSoC5/emFile_1_MMC_HW_SPI.c ****             result = emFile_1_RET_SUCCCESS;
 491              		.loc 1 701 0 is_stmt 1
 492 0030 4FF00103 		mov	r3, #1
 493 0034 FB60     		str	r3, [r7, #12]
 702:.\Generated_Source\PSoC5/emFile_1_MMC_HW_SPI.c ****         }
 703:.\Generated_Source\PSoC5/emFile_1_MMC_HW_SPI.c ****         else
ARM GAS  C:\Users\Jonathan\AppData\Local\Temp\cc5JTZZR.s 			page 22


 704:.\Generated_Source\PSoC5/emFile_1_MMC_HW_SPI.c ****         {
 705:.\Generated_Source\PSoC5/emFile_1_MMC_HW_SPI.c ****             result = emFile_1_RET_FAIL;
 706:.\Generated_Source\PSoC5/emFile_1_MMC_HW_SPI.c ****         }
 707:.\Generated_Source\PSoC5/emFile_1_MMC_HW_SPI.c **** 
 708:.\Generated_Source\PSoC5/emFile_1_MMC_HW_SPI.c ****         break;
 494              		.loc 1 708 0
 495 0036 15E0     		b	.L47
 496              	.L45:
 705:.\Generated_Source\PSoC5/emFile_1_MMC_HW_SPI.c ****             result = emFile_1_RET_FAIL;
 497              		.loc 1 705 0
 498 0038 4FF00003 		mov	r3, #0
 499 003c FB60     		str	r3, [r7, #12]
 500              		.loc 1 708 0
 501 003e 11E0     		b	.L47
 502              	.L43:
 709:.\Generated_Source\PSoC5/emFile_1_MMC_HW_SPI.c **** 
 710:.\Generated_Source\PSoC5/emFile_1_MMC_HW_SPI.c ****     default:
 711:.\Generated_Source\PSoC5/emFile_1_MMC_HW_SPI.c **** 
 712:.\Generated_Source\PSoC5/emFile_1_MMC_HW_SPI.c ****         if((Vmin <= emFile_1_MMC_DEFAULT_SUPPLY_VOLTAGE) &&
 503              		.loc 1 712 0
 504 0040 BA88     		ldrh	r2, [r7, #4]
 505 0042 40F6E443 		movw	r3, #3300
 506 0046 9A42     		cmp	r2, r3
 507 0048 08D8     		bhi	.L48
 508              		.loc 1 712 0 is_stmt 0 discriminator 1
 509 004a 7A88     		ldrh	r2, [r7, #2]
 510 004c 40F6E343 		movw	r3, #3299
 511 0050 9A42     		cmp	r2, r3
 512 0052 03D9     		bls	.L48
 713:.\Generated_Source\PSoC5/emFile_1_MMC_HW_SPI.c ****             (emFile_1_MMC_DEFAULT_SUPPLY_VOLTAGE <= Vmax))
 714:.\Generated_Source\PSoC5/emFile_1_MMC_HW_SPI.c ****         {
 715:.\Generated_Source\PSoC5/emFile_1_MMC_HW_SPI.c ****             result = emFile_1_RET_SUCCCESS;
 513              		.loc 1 715 0 is_stmt 1
 514 0054 4FF00103 		mov	r3, #1
 515 0058 FB60     		str	r3, [r7, #12]
 716:.\Generated_Source\PSoC5/emFile_1_MMC_HW_SPI.c ****         }
 717:.\Generated_Source\PSoC5/emFile_1_MMC_HW_SPI.c ****         else
 718:.\Generated_Source\PSoC5/emFile_1_MMC_HW_SPI.c ****         {
 719:.\Generated_Source\PSoC5/emFile_1_MMC_HW_SPI.c ****             result = emFile_1_RET_FAIL;
 720:.\Generated_Source\PSoC5/emFile_1_MMC_HW_SPI.c ****         }
 721:.\Generated_Source\PSoC5/emFile_1_MMC_HW_SPI.c ****         
 722:.\Generated_Source\PSoC5/emFile_1_MMC_HW_SPI.c ****         break;
 516              		.loc 1 722 0
 517 005a 02E0     		b	.L51
 518              	.L48:
 719:.\Generated_Source\PSoC5/emFile_1_MMC_HW_SPI.c ****             result = emFile_1_RET_FAIL;
 519              		.loc 1 719 0
 520 005c 4FF00003 		mov	r3, #0
 521 0060 FB60     		str	r3, [r7, #12]
 522              	.L51:
 523              		.loc 1 722 0
 524 0062 00BF     		nop
 525              	.L47:
 723:.\Generated_Source\PSoC5/emFile_1_MMC_HW_SPI.c ****     }
 724:.\Generated_Source\PSoC5/emFile_1_MMC_HW_SPI.c **** 
 725:.\Generated_Source\PSoC5/emFile_1_MMC_HW_SPI.c ****     return(result);
 526              		.loc 1 725 0
ARM GAS  C:\Users\Jonathan\AppData\Local\Temp\cc5JTZZR.s 			page 23


 527 0064 FB68     		ldr	r3, [r7, #12]
 726:.\Generated_Source\PSoC5/emFile_1_MMC_HW_SPI.c **** }
 528              		.loc 1 726 0
 529 0066 1846     		mov	r0, r3
 530 0068 07F11407 		add	r7, r7, #20
 531 006c BD46     		mov	sp, r7
 532 006e 80BC     		pop	{r7}
 533 0070 7047     		bx	lr
 534              		.cfi_endproc
 535              	.LFE62:
 536              		.size	FS_MMC_HW_X_SetVoltage, .-FS_MMC_HW_X_SetVoltage
 537 0072 00BF     		.section	.text.FS_MMC_HW_X_IsPresent,"ax",%progbits
 538              		.align	2
 539              		.global	FS_MMC_HW_X_IsPresent
 540              		.thumb
 541              		.thumb_func
 542              		.type	FS_MMC_HW_X_IsPresent, %function
 543              	FS_MMC_HW_X_IsPresent:
 544              	.LFB63:
 727:.\Generated_Source\PSoC5/emFile_1_MMC_HW_SPI.c **** 
 728:.\Generated_Source\PSoC5/emFile_1_MMC_HW_SPI.c **** 
 729:.\Generated_Source\PSoC5/emFile_1_MMC_HW_SPI.c **** /*******************************************************************************
 730:.\Generated_Source\PSoC5/emFile_1_MMC_HW_SPI.c **** * Function Name: FS_MMC_HW_X_IsPresent
 731:.\Generated_Source\PSoC5/emFile_1_MMC_HW_SPI.c **** ********************************************************************************
 732:.\Generated_Source\PSoC5/emFile_1_MMC_HW_SPI.c **** *
 733:.\Generated_Source\PSoC5/emFile_1_MMC_HW_SPI.c **** * Summary:
 734:.\Generated_Source\PSoC5/emFile_1_MMC_HW_SPI.c **** *  Returns the state of the media. If you do not know the state, return
 735:.\Generated_Source\PSoC5/emFile_1_MMC_HW_SPI.c **** *  FS_MEDIA_STATE_UNKNOWN and the higher layer will try to figure out if
 736:.\Generated_Source\PSoC5/emFile_1_MMC_HW_SPI.c **** *  a media is present.
 737:.\Generated_Source\PSoC5/emFile_1_MMC_HW_SPI.c **** *
 738:.\Generated_Source\PSoC5/emFile_1_MMC_HW_SPI.c **** * Parameters:
 739:.\Generated_Source\PSoC5/emFile_1_MMC_HW_SPI.c **** *  Unit                      - Device Index.
 740:.\Generated_Source\PSoC5/emFile_1_MMC_HW_SPI.c **** *
 741:.\Generated_Source\PSoC5/emFile_1_MMC_HW_SPI.c **** * Return:
 742:.\Generated_Source\PSoC5/emFile_1_MMC_HW_SPI.c **** *  FS_MEDIA_STATE_UNKNOWN    - Media state is unknown;
 743:.\Generated_Source\PSoC5/emFile_1_MMC_HW_SPI.c **** *  FS_MEDIA_NOT_PRESENT      - Media is not present;
 744:.\Generated_Source\PSoC5/emFile_1_MMC_HW_SPI.c **** *  FS_MEDIA_IS_PRESENT       - Media is present.
 745:.\Generated_Source\PSoC5/emFile_1_MMC_HW_SPI.c **** *
 746:.\Generated_Source\PSoC5/emFile_1_MMC_HW_SPI.c **** * Reentrant:
 747:.\Generated_Source\PSoC5/emFile_1_MMC_HW_SPI.c **** *  No
 748:.\Generated_Source\PSoC5/emFile_1_MMC_HW_SPI.c **** *
 749:.\Generated_Source\PSoC5/emFile_1_MMC_HW_SPI.c **** *******************************************************************************/
 750:.\Generated_Source\PSoC5/emFile_1_MMC_HW_SPI.c **** int FS_MMC_HW_X_IsPresent(U8 Unit)
 751:.\Generated_Source\PSoC5/emFile_1_MMC_HW_SPI.c **** {
 545              		.loc 1 751 0
 546              		.cfi_startproc
 547              		@ args = 0, pretend = 0, frame = 16
 548              		@ frame_needed = 1, uses_anonymous_args = 0
 549 0000 80B5     		push	{r7, lr}
 550              	.LCFI21:
 551              		.cfi_def_cfa_offset 8
 552              		.cfi_offset 7, -8
 553              		.cfi_offset 14, -4
 554 0002 84B0     		sub	sp, sp, #16
 555              	.LCFI22:
 556              		.cfi_def_cfa_offset 24
 557 0004 00AF     		add	r7, sp, #0
ARM GAS  C:\Users\Jonathan\AppData\Local\Temp\cc5JTZZR.s 			page 24


 558              	.LCFI23:
 559              		.cfi_def_cfa_register 7
 560 0006 0346     		mov	r3, r0
 561 0008 FB71     		strb	r3, [r7, #7]
 752:.\Generated_Source\PSoC5/emFile_1_MMC_HW_SPI.c ****      int result;
 753:.\Generated_Source\PSoC5/emFile_1_MMC_HW_SPI.c **** 
 754:.\Generated_Source\PSoC5/emFile_1_MMC_HW_SPI.c ****     emFile_1_Init(Unit);
 562              		.loc 1 754 0
 563 000a FB79     		ldrb	r3, [r7, #7]	@ zero_extendqisi2
 564 000c 1846     		mov	r0, r3
 565 000e FFF7FEFF 		bl	emFile_1_Init
 755:.\Generated_Source\PSoC5/emFile_1_MMC_HW_SPI.c **** 
 756:.\Generated_Source\PSoC5/emFile_1_MMC_HW_SPI.c ****     switch(Unit)
 566              		.loc 1 756 0
 567 0012 FB79     		ldrb	r3, [r7, #7]	@ zero_extendqisi2
 568 0014 03F10003 		add	r3, r3, #0
 569 0018 032B     		cmp	r3, #3
 570 001a 03D8     		bhi	.L53
 757:.\Generated_Source\PSoC5/emFile_1_MMC_HW_SPI.c ****     {
 758:.\Generated_Source\PSoC5/emFile_1_MMC_HW_SPI.c ****     case 0u:
 759:.\Generated_Source\PSoC5/emFile_1_MMC_HW_SPI.c **** 
 760:.\Generated_Source\PSoC5/emFile_1_MMC_HW_SPI.c ****     case 1u:
 761:.\Generated_Source\PSoC5/emFile_1_MMC_HW_SPI.c **** 
 762:.\Generated_Source\PSoC5/emFile_1_MMC_HW_SPI.c ****     case 2u:
 763:.\Generated_Source\PSoC5/emFile_1_MMC_HW_SPI.c **** 
 764:.\Generated_Source\PSoC5/emFile_1_MMC_HW_SPI.c ****     case 3u:
 765:.\Generated_Source\PSoC5/emFile_1_MMC_HW_SPI.c **** 
 766:.\Generated_Source\PSoC5/emFile_1_MMC_HW_SPI.c ****         result = FS_MEDIA_STATE_UNKNOWN;
 571              		.loc 1 766 0
 572 001c 4FF00203 		mov	r3, #2
 573 0020 FB60     		str	r3, [r7, #12]
 767:.\Generated_Source\PSoC5/emFile_1_MMC_HW_SPI.c ****         break;
 574              		.loc 1 767 0
 575 0022 03E0     		b	.L55
 576              	.L53:
 768:.\Generated_Source\PSoC5/emFile_1_MMC_HW_SPI.c **** 
 769:.\Generated_Source\PSoC5/emFile_1_MMC_HW_SPI.c ****     default:
 770:.\Generated_Source\PSoC5/emFile_1_MMC_HW_SPI.c **** 
 771:.\Generated_Source\PSoC5/emFile_1_MMC_HW_SPI.c ****         result = FS_MEDIA_STATE_UNKNOWN;
 577              		.loc 1 771 0
 578 0024 4FF00203 		mov	r3, #2
 579 0028 FB60     		str	r3, [r7, #12]
 772:.\Generated_Source\PSoC5/emFile_1_MMC_HW_SPI.c ****         break;
 580              		.loc 1 772 0
 581 002a 00BF     		nop
 582              	.L55:
 773:.\Generated_Source\PSoC5/emFile_1_MMC_HW_SPI.c ****     }
 774:.\Generated_Source\PSoC5/emFile_1_MMC_HW_SPI.c **** 
 775:.\Generated_Source\PSoC5/emFile_1_MMC_HW_SPI.c ****     return(result);
 583              		.loc 1 775 0
 584 002c FB68     		ldr	r3, [r7, #12]
 776:.\Generated_Source\PSoC5/emFile_1_MMC_HW_SPI.c **** }
 585              		.loc 1 776 0
 586 002e 1846     		mov	r0, r3
 587 0030 07F11007 		add	r7, r7, #16
 588 0034 BD46     		mov	sp, r7
 589 0036 80BD     		pop	{r7, pc}
ARM GAS  C:\Users\Jonathan\AppData\Local\Temp\cc5JTZZR.s 			page 25


 590              		.cfi_endproc
 591              	.LFE63:
 592              		.size	FS_MMC_HW_X_IsPresent, .-FS_MMC_HW_X_IsPresent
 593              		.section	.text.FS_MMC_HW_X_Read,"ax",%progbits
 594              		.align	2
 595              		.global	FS_MMC_HW_X_Read
 596              		.thumb
 597              		.thumb_func
 598              		.type	FS_MMC_HW_X_Read, %function
 599              	FS_MMC_HW_X_Read:
 600              	.LFB64:
 777:.\Generated_Source\PSoC5/emFile_1_MMC_HW_SPI.c **** 
 778:.\Generated_Source\PSoC5/emFile_1_MMC_HW_SPI.c **** 
 779:.\Generated_Source\PSoC5/emFile_1_MMC_HW_SPI.c **** /*******************************************************************************
 780:.\Generated_Source\PSoC5/emFile_1_MMC_HW_SPI.c **** * Function Name: FS_MMC_HW_X_Read
 781:.\Generated_Source\PSoC5/emFile_1_MMC_HW_SPI.c **** ********************************************************************************
 782:.\Generated_Source\PSoC5/emFile_1_MMC_HW_SPI.c **** *
 783:.\Generated_Source\PSoC5/emFile_1_MMC_HW_SPI.c **** * Summary:
 784:.\Generated_Source\PSoC5/emFile_1_MMC_HW_SPI.c **** *  FS low level function. Reads a specified number of bytes from MMC card to 
 785:.\Generated_Source\PSoC5/emFile_1_MMC_HW_SPI.c **** *  buffer.
 786:.\Generated_Source\PSoC5/emFile_1_MMC_HW_SPI.c **** *
 787:.\Generated_Source\PSoC5/emFile_1_MMC_HW_SPI.c **** * Parameters:
 788:.\Generated_Source\PSoC5/emFile_1_MMC_HW_SPI.c **** *    Unit             - Device Index;
 789:.\Generated_Source\PSoC5/emFile_1_MMC_HW_SPI.c **** *    pData            - Pointer to a data buffer;
 790:.\Generated_Source\PSoC5/emFile_1_MMC_HW_SPI.c **** *    NumBytes         - Number of bytes.
 791:.\Generated_Source\PSoC5/emFile_1_MMC_HW_SPI.c **** *
 792:.\Generated_Source\PSoC5/emFile_1_MMC_HW_SPI.c **** * Return:
 793:.\Generated_Source\PSoC5/emFile_1_MMC_HW_SPI.c **** *  None
 794:.\Generated_Source\PSoC5/emFile_1_MMC_HW_SPI.c **** *
 795:.\Generated_Source\PSoC5/emFile_1_MMC_HW_SPI.c **** * Reentrant:
 796:.\Generated_Source\PSoC5/emFile_1_MMC_HW_SPI.c **** *  No
 797:.\Generated_Source\PSoC5/emFile_1_MMC_HW_SPI.c **** *
 798:.\Generated_Source\PSoC5/emFile_1_MMC_HW_SPI.c **** *******************************************************************************/
 799:.\Generated_Source\PSoC5/emFile_1_MMC_HW_SPI.c **** #if (CY_PSOC5)
 800:.\Generated_Source\PSoC5/emFile_1_MMC_HW_SPI.c ****     void  FS_MMC_HW_X_Read (U8 Unit, U8 * pData, int NumBytes)
 801:.\Generated_Source\PSoC5/emFile_1_MMC_HW_SPI.c ****     {
 601              		.loc 1 801 0
 602              		.cfi_startproc
 603              		@ args = 0, pretend = 0, frame = 16
 604              		@ frame_needed = 1, uses_anonymous_args = 0
 605 0000 80B5     		push	{r7, lr}
 606              	.LCFI24:
 607              		.cfi_def_cfa_offset 8
 608              		.cfi_offset 7, -8
 609              		.cfi_offset 14, -4
 610 0002 84B0     		sub	sp, sp, #16
 611              	.LCFI25:
 612              		.cfi_def_cfa_offset 24
 613 0004 00AF     		add	r7, sp, #0
 614              	.LCFI26:
 615              		.cfi_def_cfa_register 7
 616 0006 0346     		mov	r3, r0
 617 0008 B960     		str	r1, [r7, #8]
 618 000a 7A60     		str	r2, [r7, #4]
 619 000c FB73     		strb	r3, [r7, #15]
 620              	.L58:
 802:.\Generated_Source\PSoC5/emFile_1_MMC_HW_SPI.c ****         do
ARM GAS  C:\Users\Jonathan\AppData\Local\Temp\cc5JTZZR.s 			page 26


 803:.\Generated_Source\PSoC5/emFile_1_MMC_HW_SPI.c ****         {
 804:.\Generated_Source\PSoC5/emFile_1_MMC_HW_SPI.c ****             *pData++ = emFile_1_ReadWriteSPI(Unit, 0xff);
 621              		.loc 1 804 0 discriminator 1
 622 000e FB7B     		ldrb	r3, [r7, #15]	@ zero_extendqisi2
 623 0010 1846     		mov	r0, r3
 624 0012 4FF0FF01 		mov	r1, #255
 625 0016 FFF7FEFF 		bl	emFile_1_ReadWriteSPI
 626 001a 0346     		mov	r3, r0
 627 001c 1A46     		mov	r2, r3
 628 001e BB68     		ldr	r3, [r7, #8]
 629 0020 1A70     		strb	r2, [r3, #0]
 630 0022 BB68     		ldr	r3, [r7, #8]
 631 0024 03F10103 		add	r3, r3, #1
 632 0028 BB60     		str	r3, [r7, #8]
 805:.\Generated_Source\PSoC5/emFile_1_MMC_HW_SPI.c ****         } while (--NumBytes);
 633              		.loc 1 805 0 discriminator 1
 634 002a 7B68     		ldr	r3, [r7, #4]
 635 002c 03F1FF33 		add	r3, r3, #-1
 636 0030 7B60     		str	r3, [r7, #4]
 637 0032 7B68     		ldr	r3, [r7, #4]
 638 0034 002B     		cmp	r3, #0
 639 0036 EAD1     		bne	.L58
 806:.\Generated_Source\PSoC5/emFile_1_MMC_HW_SPI.c ****     }
 640              		.loc 1 806 0
 641 0038 07F11007 		add	r7, r7, #16
 642 003c BD46     		mov	sp, r7
 643 003e 80BD     		pop	{r7, pc}
 644              		.cfi_endproc
 645              	.LFE64:
 646              		.size	FS_MMC_HW_X_Read, .-FS_MMC_HW_X_Read
 647              		.section	.text.FS_MMC_HW_X_Write,"ax",%progbits
 648              		.align	2
 649              		.global	FS_MMC_HW_X_Write
 650              		.thumb
 651              		.thumb_func
 652              		.type	FS_MMC_HW_X_Write, %function
 653              	FS_MMC_HW_X_Write:
 654              	.LFB65:
 807:.\Generated_Source\PSoC5/emFile_1_MMC_HW_SPI.c **** #else
 808:.\Generated_Source\PSoC5/emFile_1_MMC_HW_SPI.c ****     void  FS_MMC_HW_X_Read (U8 Unit, U8 xdata * pData, int NumBytes)
 809:.\Generated_Source\PSoC5/emFile_1_MMC_HW_SPI.c ****     {
 810:.\Generated_Source\PSoC5/emFile_1_MMC_HW_SPI.c ****         do
 811:.\Generated_Source\PSoC5/emFile_1_MMC_HW_SPI.c ****         {
 812:.\Generated_Source\PSoC5/emFile_1_MMC_HW_SPI.c ****             *pData++ = emFile_1_ReadWriteSPI(Unit, 0xff);
 813:.\Generated_Source\PSoC5/emFile_1_MMC_HW_SPI.c ****         } while (--NumBytes);
 814:.\Generated_Source\PSoC5/emFile_1_MMC_HW_SPI.c ****     }
 815:.\Generated_Source\PSoC5/emFile_1_MMC_HW_SPI.c **** #endif /* (CY_PSOC5) */
 816:.\Generated_Source\PSoC5/emFile_1_MMC_HW_SPI.c **** 
 817:.\Generated_Source\PSoC5/emFile_1_MMC_HW_SPI.c **** 
 818:.\Generated_Source\PSoC5/emFile_1_MMC_HW_SPI.c **** /*******************************************************************************
 819:.\Generated_Source\PSoC5/emFile_1_MMC_HW_SPI.c **** * Function Name: FS_MMC_HW_X_Write
 820:.\Generated_Source\PSoC5/emFile_1_MMC_HW_SPI.c **** ********************************************************************************
 821:.\Generated_Source\PSoC5/emFile_1_MMC_HW_SPI.c **** *
 822:.\Generated_Source\PSoC5/emFile_1_MMC_HW_SPI.c **** * Summary:
 823:.\Generated_Source\PSoC5/emFile_1_MMC_HW_SPI.c **** *  FS low level function. Writes a specified number of bytes from
 824:.\Generated_Source\PSoC5/emFile_1_MMC_HW_SPI.c **** *  data buffer to the MMC/SD card.
 825:.\Generated_Source\PSoC5/emFile_1_MMC_HW_SPI.c **** *
ARM GAS  C:\Users\Jonathan\AppData\Local\Temp\cc5JTZZR.s 			page 27


 826:.\Generated_Source\PSoC5/emFile_1_MMC_HW_SPI.c **** * Parameters:
 827:.\Generated_Source\PSoC5/emFile_1_MMC_HW_SPI.c **** *    Unit             - Device Index;
 828:.\Generated_Source\PSoC5/emFile_1_MMC_HW_SPI.c **** *    pData            - Pointer to a data buffer;
 829:.\Generated_Source\PSoC5/emFile_1_MMC_HW_SPI.c **** *    NumBytes         - Number of bytes.
 830:.\Generated_Source\PSoC5/emFile_1_MMC_HW_SPI.c **** *
 831:.\Generated_Source\PSoC5/emFile_1_MMC_HW_SPI.c **** * Return:
 832:.\Generated_Source\PSoC5/emFile_1_MMC_HW_SPI.c **** *  None
 833:.\Generated_Source\PSoC5/emFile_1_MMC_HW_SPI.c **** *
 834:.\Generated_Source\PSoC5/emFile_1_MMC_HW_SPI.c **** * Reentrant:
 835:.\Generated_Source\PSoC5/emFile_1_MMC_HW_SPI.c **** *  No
 836:.\Generated_Source\PSoC5/emFile_1_MMC_HW_SPI.c **** *
 837:.\Generated_Source\PSoC5/emFile_1_MMC_HW_SPI.c **** *******************************************************************************/
 838:.\Generated_Source\PSoC5/emFile_1_MMC_HW_SPI.c **** #if (CY_PSOC5)
 839:.\Generated_Source\PSoC5/emFile_1_MMC_HW_SPI.c ****     void  FS_MMC_HW_X_Write(U8 Unit, const U8 * pData, int NumBytes) 
 840:.\Generated_Source\PSoC5/emFile_1_MMC_HW_SPI.c ****     {
 655              		.loc 1 840 0
 656              		.cfi_startproc
 657              		@ args = 0, pretend = 0, frame = 16
 658              		@ frame_needed = 1, uses_anonymous_args = 0
 659 0000 80B5     		push	{r7, lr}
 660              	.LCFI27:
 661              		.cfi_def_cfa_offset 8
 662              		.cfi_offset 7, -8
 663              		.cfi_offset 14, -4
 664 0002 84B0     		sub	sp, sp, #16
 665              	.LCFI28:
 666              		.cfi_def_cfa_offset 24
 667 0004 00AF     		add	r7, sp, #0
 668              	.LCFI29:
 669              		.cfi_def_cfa_register 7
 670 0006 0346     		mov	r3, r0
 671 0008 B960     		str	r1, [r7, #8]
 672 000a 7A60     		str	r2, [r7, #4]
 673 000c FB73     		strb	r3, [r7, #15]
 674              	.L60:
 841:.\Generated_Source\PSoC5/emFile_1_MMC_HW_SPI.c ****         do
 842:.\Generated_Source\PSoC5/emFile_1_MMC_HW_SPI.c ****         {
 843:.\Generated_Source\PSoC5/emFile_1_MMC_HW_SPI.c ****             emFile_1_ReadWriteSPI(Unit, *pData++);
 675              		.loc 1 843 0 discriminator 1
 676 000e BB68     		ldr	r3, [r7, #8]
 677 0010 1B78     		ldrb	r3, [r3, #0]	@ zero_extendqisi2
 678 0012 BA68     		ldr	r2, [r7, #8]
 679 0014 02F10102 		add	r2, r2, #1
 680 0018 BA60     		str	r2, [r7, #8]
 681 001a FA7B     		ldrb	r2, [r7, #15]	@ zero_extendqisi2
 682 001c 1046     		mov	r0, r2
 683 001e 1946     		mov	r1, r3
 684 0020 FFF7FEFF 		bl	emFile_1_ReadWriteSPI
 844:.\Generated_Source\PSoC5/emFile_1_MMC_HW_SPI.c ****         } while (--NumBytes);
 685              		.loc 1 844 0 discriminator 1
 686 0024 7B68     		ldr	r3, [r7, #4]
 687 0026 03F1FF33 		add	r3, r3, #-1
 688 002a 7B60     		str	r3, [r7, #4]
 689 002c 7B68     		ldr	r3, [r7, #4]
 690 002e 002B     		cmp	r3, #0
 691 0030 EDD1     		bne	.L60
 845:.\Generated_Source\PSoC5/emFile_1_MMC_HW_SPI.c ****     }
ARM GAS  C:\Users\Jonathan\AppData\Local\Temp\cc5JTZZR.s 			page 28


 692              		.loc 1 845 0
 693 0032 07F11007 		add	r7, r7, #16
 694 0036 BD46     		mov	sp, r7
 695 0038 80BD     		pop	{r7, pc}
 696              		.cfi_endproc
 697              	.LFE65:
 698              		.size	FS_MMC_HW_X_Write, .-FS_MMC_HW_X_Write
 699 003a 00BF     		.text
 700              	.Letext0:
 701              		.file 2 "c:\\program files (x86)\\cypress\\psoc creator\\3.0\\psoc creator\\import\\gnu_cs\\arm\\4
 702              		.file 3 "./Generated_Source/PSoC5/cytypes.h"
 703              		.file 4 "./Generated_Source/PSoC5/core_cm3.h"